EXPORTS
    AddMember @1
    AddSender @2
    DELAY_SECOND @3 DATA
    DELAY_ZERO @4 DATA
    NewMember @5
    NewSender @6
    OnExpire @7
    OnReceive @8
    PacketType @9
    ReceivedPacketSize @10
    ReceivingInterfaceAddr @11 DATA
    RemoveMember @12
    RemoveSender @13
    Reschedule @14
    Schedule @15
    SendBYEPacket @16
    SendRTCPReport @17
    SendingInterfaceAddr @18 DATA
    SentPacketSize @19
    THE_END_OF_TIME @20 DATA
    TypeOfEvent @21
    _Z10SeekFile64P6_iobufxi @22
    _Z10TellFile64P6_iobuf @23
    _Z10readSocketR16UsageEnvironmentiPhjR11sockaddr_in @24
    _Z10strDupSizePKc @25
    _Z11GetFileSizePKcP6_iobuf @26
    _Z11writeSocketR16UsageEnvironmenti7in_addr4PorthPhj @27
    _Z12base64DecodePcRjj @28
    _Z12base64EncodePKcj @29
    _Z12gettimeofdayP7timevalPi @30
    _Z12ourIPAddressR16UsageEnvironment @31
    _Z13OpenInputFileR16UsageEnvironmentPKc @32
    _Z13getSourcePortR16UsageEnvironmentiR4Port @33
    _Z14CloseInputFileP6_iobuf @34
    _Z14OpenOutputFileR16UsageEnvironmentPKc @35
    _Z15CloseOutputFileP6_iobuf @36
    _Z15parseRangeParamPKcRdS1_ @37
    _Z15setSendBufferToR16UsageEnvironmentij @38
    _Z15socketJoinGroupR16UsageEnvironmentij @39
    _Z15timestampStringv @40
    _Z16parseRangeHeaderPKcRdS1_ @41
    _Z16socketLeaveGroupR16UsageEnvironmentij @42
    _Z17getSendBufferSizeR16UsageEnvironmenti @43
    _Z17setupStreamSocketR16UsageEnvironment4Portj @44
    _Z17socketReadHandlerP6Socketi @45
    _Z18IsMulticastAddressj @46
    _Z18makeSocketBlockingi @47
    _Z18setReceiveBufferToR16UsageEnvironmentij @48
    _Z18socketJoinGroupSSMR16UsageEnvironmentijj @49
    _Z19setupDatagramSocketR16UsageEnvironment4Port @50
    _Z19socketLeaveGroupSSMR16UsageEnvironmentijj @51
    _Z20getReceiveBufferSizeR16UsageEnvironmenti @52
    _Z20increaseSendBufferToR16UsageEnvironmentij @53
    _Z21makeSocketNonBlockingi @54
    _Z22parseRTSPRequestStringPKcjPcjS1_jS1_jS1_j @55
    _Z23increaseReceiveBufferToR16UsageEnvironmentij @56
    _Z23parseSPropParameterSetsPKcRj @57
    _Z26chooseRandomIPv4SSMAddressR16UsageEnvironment @58
    _Z6strDupPKc @59
    _Z7TimeNowv @60
    _Z8seqNumLTtt @61
    _Z9shiftBitsPhjPKhjj @62
    _ZN10DelayQueue11handleAlarmEv @63
    _ZN10DelayQueue11removeEntryEP15DelayQueueEntry @64
    _ZN10DelayQueue11removeEntryEl @65
    _ZN10DelayQueue11synchronizeEv @66
    _ZN10DelayQueue11updateEntryEP15DelayQueueEntry13DelayInterval @67
    _ZN10DelayQueue11updateEntryEl13DelayInterval @68
    _ZN10DelayQueue15timeToNextAlarmEv @69
    _ZN10DelayQueue16findEntryByTokenEl @70
    _ZN10DelayQueue8addEntryEP15DelayQueueEntry @71
    _ZN10DelayQueueC1Ev @72
    _ZN10DelayQueueC2Ev @73
    _ZN10DelayQueueD0Ev @74
    _ZN10DelayQueueD1Ev @75
    _ZN10DelayQueueD2Ev @76
    _ZN10HandlerSet11moveHandlerEii @77
    _ZN10HandlerSet12clearHandlerEi @78
    _ZN10HandlerSet13assignHandlerEiiPFvPviES0_ @79
    _ZN10HandlerSet13lookupHandlerEi @80
    _ZN10HandlerSetC1Ev @81
    _ZN10HandlerSetC2Ev @82
    _ZN10HandlerSetD0Ev @83
    _ZN10HandlerSetD1Ev @84
    _ZN10HandlerSetD2Ev @85
    _ZN10NetAddress5cleanEv @86
    _ZN10NetAddress6assignEPKhj @87
    _ZN10NetAddressC1EPKhj @88
    _ZN10NetAddressC1ERKS_ @89
    _ZN10NetAddressC1Ej @90
    _ZN10NetAddressC2EPKhj @91
    _ZN10NetAddressC2ERKS_ @92
    _ZN10NetAddressC2Ej @93
    _ZN10NetAddressD0Ev @94
    _ZN10NetAddressD1Ev @95
    _ZN10NetAddressD2Ev @96
    _ZN10NetAddressaSERKS_ @97
    _ZN10RTSPClient10setBaseURLEPKc @98
    _ZN10RTSPClient11describeURLEPKcP13Authenticatorji @99
    _ZN10RTSPClient11sendRequestEPNS_13RequestRecordE @100
    _ZN10RTSPClient12RequestQueue10findByCSeqEj @101
    _ZN10RTSPClient12RequestQueue7dequeueEv @102
    _ZN10RTSPClient12RequestQueue7enqueueEPNS_13RequestRecordE @103
    _ZN10RTSPClient12RequestQueue9putAtHeadEPNS_13RequestRecordE @104
    _ZN10RTSPClient12RequestQueueC1Ev @105
    _ZN10RTSPClient12RequestQueueC2Ev @106
    _ZN10RTSPClient12RequestQueueD0Ev @107
    _ZN10RTSPClient12RequestQueueD1Ev @108
    _ZN10RTSPClient12RequestQueueD2Ev @109
    _ZN10RTSPClient12lookupByNameER16UsageEnvironmentPKcRPS_ @110
    _ZN10RTSPClient12parseRTSPURLER16UsageEnvironmentPKcR10NetAddressRtPS3_ @111
    _ZN10RTSPClient13RequestRecordC1EjPKcPFvPS_iPcEP12MediaSessionP15MediaSubsessionjddfS2_ @112
    _ZN10RTSPClient13RequestRecordC2EjPKcPFvPS_iPcEP12MediaSessionP15MediaSubsessionjddfS2_ @113
    _ZN10RTSPClient13RequestRecordD0Ev @114
    _ZN10RTSPClient13RequestRecordD1Ev @115
    _ZN10RTSPClient13RequestRecordD2Ev @116
    _ZN10RTSPClient13resendCommandEPNS_13RequestRecordE @117
    _ZN10RTSPClient14checkForHeaderEPKcS1_jRS1_ @118
    _ZN10RTSPClient14openConnectionEv @119
    _ZN10RTSPClient14sendOptionsCmdEPKcPcS2_P13Authenticatori @120
    _ZN10RTSPClient15connectToServerEit @121
    _ZN10RTSPClient15parseScaleParamEPKcRf @122
    _ZN10RTSPClient15resetTCPSocketsEv @123
    _ZN10RTSPClient15sendPlayCommandER12MediaSessionPFvPS_iPcEddfP13Authenticator @124
    _ZN10RTSPClient15sendPlayCommandER15MediaSubsessionPFvPS_iPcEddfP13Authenticator @125
    _ZN10RTSPClient16playMediaSessionER12MediaSessionddf @126
    _ZN10RTSPClient16sendPauseCommandER12MediaSessionPFvPS_iPcEP13Authenticator @127
    _ZN10RTSPClient16sendPauseCommandER15MediaSubsessionPFvPS_iPcEP13Authenticator @128
    _ZN10RTSPClient16sendSetupCommandER15MediaSubsessionPFvPS_iPcEjjjP13Authenticator @129
    _ZN10RTSPClient17connectionHandlerEPvi @130
    _ZN10RTSPClient17parseResponseCodeEPKcRjRS1_S2_ @131
    _ZN10RTSPClient17pauseMediaSessionER12MediaSession @132
    _ZN10RTSPClient17sendRecordCommandER12MediaSessionPFvPS_iPcEP13Authenticator @133
    _ZN10RTSPClient17sendRecordCommandER15MediaSubsessionPFvPS_iPcEP13Authenticator @134
    _ZN10RTSPClient18connectionHandler1Ev @135
    _ZN10RTSPClient18handlePLAYResponseER12MediaSessionR15MediaSubsessionPKcS5_S5_ @136
    _ZN10RTSPClient18handleRequestErrorEPNS_13RequestRecordE @137
    _ZN10RTSPClient18parseRTPInfoParamsERPKcRtRj @138
    _ZN10RTSPClient18responseBufferSizeE @139 DATA
    _ZN10RTSPClient18sendOptionsCommandEPFvPS_iPcEP13Authenticator @140
    _ZN10RTSPClient18setUserAgentStringEPKc @141
    _ZN10RTSPClient19handleResponseBytesEi @142
    _ZN10RTSPClient19handleSETUPResponseER15MediaSubsessionPKcS3_j @143
    _ZN10RTSPClient19incomingDataHandlerEPvi @144
    _ZN10RTSPClient19playMediaSubsessionER15MediaSubsessionddfj @145
    _ZN10RTSPClient19resetResponseBufferEv @146
    _ZN10RTSPClient19sendAnnounceCommandEPKcPFvPS_iPcEP13Authenticator @147
    _ZN10RTSPClient19sendDescribeCommandEPFvPS_iPcEP13Authenticator @148
    _ZN10RTSPClient19sendTeardownCommandER12MediaSessionPFvPS_iPcEP13Authenticator @149
    _ZN10RTSPClient19sendTeardownCommandER15MediaSubsessionPFvPS_iPcEP13Authenticator @150
    _ZN10RTSPClient19setupHTTPTunneling1Ev @151
    _ZN10RTSPClient19setupHTTPTunneling2Ev @152
    _ZN10RTSPClient20announceWithPasswordEPKcS1_S1_S1_i @153
    _ZN10RTSPClient20describeWithPasswordEPKcS1_S1_ji @154
    _ZN10RTSPClient20incomingDataHandler1Ev @155
    _ZN10RTSPClient20parseTransportParamsEPKcRPcRtRhS5_ @156
    _ZN10RTSPClient20pauseMediaSubsessionER15MediaSubsession @157
    _ZN10RTSPClient20setupMediaSubsessionER15MediaSubsessionjjj @158
    _ZN10RTSPClient20teardownMediaSessionER12MediaSession @159
    _ZN10RTSPClient21changeResponseHandlerEjPFvPS_iPcE @160
    _ZN10RTSPClient21handleIncomingRequestEv @161
    _ZN10RTSPClient21recordMediaSubsessionER15MediaSubsession @162
    _ZN10RTSPClient22announceSDPDescriptionEPKcS1_P13Authenticatori @163
    _ZN10RTSPClient22constructSubsessionURLERK15MediaSubsessionRPKcS5_S5_ @164
    _ZN10RTSPClient22handleTEARDOWNResponseER12MediaSessionR15MediaSubsession @165
    _ZN10RTSPClient23sendGetParameterCommandER12MediaSessionPFvPS_iPcEPKcP13Authenticator @166
    _ZN10RTSPClient23sendSetParameterCommandER12MediaSessionPFvPS_iPcEPKcS7_P13Authenticator @167
    _ZN10RTSPClient23teardownMediaSubsessionER15MediaSubsession @168
    _ZN10RTSPClient24getMediaSessionParameterER12MediaSessionPKcRPc @169
    _ZN10RTSPClient24setMediaSessionParameterER12MediaSessionPKcS3_ @170
    _ZN10RTSPClient25createAuthenticatorStringEPKcS1_ @171
    _ZN10RTSPClient26responseHandlerForHTTP_GETEPS_iPc @172
    _ZN10RTSPClient27handleAuthenticationFailureEPKc @173
    _ZN10RTSPClient27handleGET_PARAMETERResponseEPKcRPc @174
    _ZN10RTSPClient27responseHandlerForHTTP_GET1EiPc @175
    _ZN10RTSPClient28handleAlternativeRequestByteEPvh @176
    _ZN10RTSPClient28parseRTSPURLUsernamePasswordEPKcRPcS3_ @177
    _ZN10RTSPClient29handleAlternativeRequestByte1Eh @178
    _ZN10RTSPClient30timeoutHandlerForSyncInterfaceEPv @179
    _ZN10RTSPClient31responseHandlerForSyncInterfaceEPS_iPc @180
    _ZN10RTSPClient31timeoutHandlerForSyncInterface1Ev @181
    _ZN10RTSPClient32responseHandlerForSyncInterface1EiPc @182
    _ZN10RTSPClient5resetEv @183
    _ZN10RTSPClient9createNewER16UsageEnvironmentPKciS3_t @184
    _ZN10RTSPClient9createNewER16UsageEnvironmentiPKct @185
    _ZN10RTSPClientC1ER16UsageEnvironmentPKciS3_t @186
    _ZN10RTSPClientC2ER16UsageEnvironmentPKciS3_t @187
    _ZN10RTSPClientD0Ev @188
    _ZN10RTSPClientD1Ev @189
    _ZN10RTSPClientD2Ev @190
    _ZN10RTSPServer12lookupByNameER16UsageEnvironmentPKcRPS_ @191
    _ZN10RTSPServer14setUpOurSocketER16UsageEnvironmentR4Port @192
    _ZN10RTSPServer17RTSPClientSession12noteLivenessEv @193
    _ZN10RTSPServer17RTSPClientSession13handleCmd_badEPKc @194
    _ZN10RTSPServer17RTSPClientSession14handleCmd_PLAYEP21ServerMediaSubsessionPKcS4_ @195
    _ZN10RTSPServer17RTSPClientSession15handleCmd_PAUSEEP21ServerMediaSubsessionPKc @196
    _ZN10RTSPServer17RTSPClientSession15handleCmd_SETUPEPKcS2_S2_S2_ @197
    _ZN10RTSPServer17RTSPClientSession16authenticationOKEPKcS2_S2_S2_ @198
    _ZN10RTSPServer17RTSPClientSession17handleCmd_OPTIONSEPKc @199
    _ZN10RTSPServer17RTSPClientSession18handleCmd_DESCRIBEEPKcS2_S2_ @200
    _ZN10RTSPServer17RTSPClientSession18handleCmd_TEARDOWNEP21ServerMediaSubsessionPKc @201
    _ZN10RTSPServer17RTSPClientSession18handleCmd_notFoundEPKc @202
    _ZN10RTSPServer17RTSPClientSession18handleRequestBytesEi @203
    _ZN10RTSPServer17RTSPClientSession18noteClientLivenessEPS0_ @204
    _ZN10RTSPServer17RTSPClientSession18resetRequestBufferEv @205
    _ZN10RTSPServer17RTSPClientSession19livenessTimeoutTaskEPS0_ @206
    _ZN10RTSPServer17RTSPClientSession19reclaimStreamStatesEv @207
    _ZN10RTSPServer17RTSPClientSession22handleCmd_notSupportedEPKc @208
    _ZN10RTSPServer17RTSPClientSession22incomingRequestHandlerEPvi @209
    _ZN10RTSPServer17RTSPClientSession23handleCmd_GET_PARAMETEREP21ServerMediaSubsessionPKcS4_ @210
    _ZN10RTSPServer17RTSPClientSession23handleCmd_SET_PARAMETEREP21ServerMediaSubsessionPKcS4_ @211
    _ZN10RTSPServer17RTSPClientSession23handleCmd_withinSessionEPKcS2_S2_S2_S2_ @212
    _ZN10RTSPServer17RTSPClientSession23incomingRequestHandler1Ev @213
    _ZN10RTSPServer17RTSPClientSession28handleAlternativeRequestByteEPvh @214
    _ZN10RTSPServer17RTSPClientSession29handleAlternativeRequestByte1Eh @215
    _ZN10RTSPServer17RTSPClientSession30handleCmd_unsupportedTransportEPKc @216
    _ZN10RTSPServer17RTSPClientSessionC1ERS_ji11sockaddr_in @217
    _ZN10RTSPServer17RTSPClientSessionC2ERS_ji11sockaddr_in @218
    _ZN10RTSPServer17RTSPClientSessionD0Ev @219
    _ZN10RTSPServer17RTSPClientSessionD1Ev @220
    _ZN10RTSPServer17RTSPClientSessionD2Ev @221
    _ZN10RTSPServer21addServerMediaSessionEP18ServerMediaSession @222
    _ZN10RTSPServer22createNewClientSessionEji11sockaddr_in @223
    _ZN10RTSPServer24lookupServerMediaSessionEPKc @224
    _ZN10RTSPServer24removeServerMediaSessionEP18ServerMediaSession @225
    _ZN10RTSPServer24removeServerMediaSessionEPKc @226
    _ZN10RTSPServer24specialClientAccessCheckEiR11sockaddr_inPKc @227
    _ZN10RTSPServer25incomingConnectionHandlerEPvi @228
    _ZN10RTSPServer26ServerMediaSessionIterator4nextEv @229
    _ZN10RTSPServer26ServerMediaSessionIteratorC1ERS_ @230
    _ZN10RTSPServer26ServerMediaSessionIteratorC2ERS_ @231
    _ZN10RTSPServer26ServerMediaSessionIteratorD0Ev @232
    _ZN10RTSPServer26ServerMediaSessionIteratorD1Ev @233
    _ZN10RTSPServer26ServerMediaSessionIteratorD2Ev @234
    _ZN10RTSPServer26incomingConnectionHandler1Ev @235
    _ZN10RTSPServer9createNewER16UsageEnvironment4PortP26UserAuthenticationDatabasej @236
    _ZN10RTSPServerC1ER16UsageEnvironmenti4PortP26UserAuthenticationDatabasej @237
    _ZN10RTSPServerC2ER16UsageEnvironmenti4PortP26UserAuthenticationDatabasej @238
    _ZN10RTSPServerD0Ev @239
    _ZN10RTSPServerD1Ev @240
    _ZN10RTSPServerD2Ev @241
    _ZN10destRecordC1ERK7in_addrRK4PorthPS_ @242
    _ZN10destRecordC2ERK7in_addrRK4PorthPS_ @243
    _ZN10destRecordD0Ev @244
    _ZN10destRecordD1Ev @245
    _ZN10destRecordD2Ev @246
    _ZN11MediaSource12lookupByNameER16UsageEnvironmentPKcRPS_ @247
    _ZN11MediaSourceC1ER16UsageEnvironment @248
    _ZN11MediaSourceC2ER16UsageEnvironment @249
    _ZN11MediaSourceD0Ev @250
    _ZN11MediaSourceD1Ev @251
    _ZN11MediaSourceD2Ev @252
    _ZN12AlarmHandler13handleTimeoutEv @253
    _ZN12AlarmHandlerD0Ev @254
    _ZN12AlarmHandlerD1Ev @255
    _ZN12AudioRTPSinkC1ER16UsageEnvironmentP9GroupsockhjPKcj @256
    _ZN12AudioRTPSinkC2ER16UsageEnvironmentP9GroupsockhjPKcj @257
    _ZN12AudioRTPSinkD0Ev @258
    _ZN12AudioRTPSinkD1Ev @259
    _ZN12AudioRTPSinkD2Ev @260
    _ZN12BasicUDPSink15continuePlayingEv @261
    _ZN12BasicUDPSink16continuePlaying1Ev @262
    _ZN12BasicUDPSink17afterGettingFrameEPvjj7timevalj @263
    _ZN12BasicUDPSink18afterGettingFrame1Ejjj @264
    _ZN12BasicUDPSink8sendNextEPv @265
    _ZN12BasicUDPSink9createNewER16UsageEnvironmentP9Groupsockj @266
    _ZN12BasicUDPSinkC1ER16UsageEnvironmentP9Groupsockj @267
    _ZN12BasicUDPSinkC2ER16UsageEnvironmentP9Groupsockj @268
    _ZN12BasicUDPSinkD0Ev @269
    _ZN12BasicUDPSinkD1Ev @270
    _ZN12BasicUDPSinkD2Ev @271
    _ZN12DeviceSource12deliverFrameEv @272
    _ZN12DeviceSource14doGetNextFrameEv @273
    _ZN12DeviceSource9createNewER16UsageEnvironment16DeviceParameters @274
    _ZN12DeviceSourceC1ER16UsageEnvironment16DeviceParameters @275
    _ZN12DeviceSourceC2ER16UsageEnvironment16DeviceParameters @276
    _ZN12DeviceSourceD0Ev @277
    _ZN12DeviceSourceD1Ev @278
    _ZN12DeviceSourceD2Ev @279
    _ZN12FramedFilter19doStopGettingFramesEv @280
    _ZN12FramedFilterC1ER16UsageEnvironmentP12FramedSource @281
    _ZN12FramedFilterC2ER16UsageEnvironmentP12FramedSource @282
    _ZN12FramedFilterD0Ev @283
    _ZN12FramedFilterD1Ev @284
    _ZN12FramedFilterD2Ev @285
    _ZN12FramedSource12afterGettingEPS_ @286
    _ZN12FramedSource12getNextFrameEPhjPFvPvjj7timevaljES1_PFvS1_ES1_ @287
    _ZN12FramedSource12lookupByNameER16UsageEnvironmentPKcRPS_ @288
    _ZN12FramedSource13handleClosureEPv @289
    _ZN12FramedSource17stopGettingFramesEv @290
    _ZN12FramedSource19doStopGettingFramesEv @291
    _ZN12FramedSourceC1ER16UsageEnvironment @292
    _ZN12FramedSourceC2ER16UsageEnvironment @293
    _ZN12FramedSourceD0Ev @294
    _ZN12FramedSourceD1Ev @295
    _ZN12FramedSourceD2Ev @296
    _ZN12MediaSession12lookupByNameER16UsageEnvironmentPKcRPS_ @297
    _ZN12MediaSession12parseSDPLineEPKcRS1_ @298
    _ZN12MediaSession14parseSDPLine_cEPKc @299
    _ZN12MediaSession14parseSDPLine_iEPKc @300
    _ZN12MediaSession14parseSDPLine_sEPKc @301
    _ZN12MediaSession17initializeWithSDPEPKc @302
    _ZN12MediaSession19initiateByMediaTypeEPKcRP15MediaSubsessioni @303
    _ZN12MediaSession19lookupPayloadFormatEhRjS0_ @304
    _ZN12MediaSession22parseSDPAttribute_typeEPKc @305
    _ZN12MediaSession23parseSDPAttribute_rangeEPKc @306
    _ZN12MediaSession25parseSDPAttribute_controlEPKc @307
    _ZN12MediaSession26guessRTPTimestampFrequencyEPKcS1_ @308
    _ZN12MediaSession31parseSDPAttribute_source_filterEPKc @309
    _ZN12MediaSession9createNewER16UsageEnvironmentPKc @310
    _ZN12MediaSessionC1ER16UsageEnvironment @311
    _ZN12MediaSessionC2ER16UsageEnvironment @312
    _ZN12MediaSessionD0Ev @313
    _ZN12MediaSessionD1Ev @314
    _ZN12MediaSessionD2Ev @315
    _ZN12NetInterface23DefaultUsageEnvironmentE @316 DATA
    _ZN12NetInterfaceC1Ev @317
    _ZN12NetInterfaceC2Ev @318
    _ZN12NetInterfaceD0Ev @319
    _ZN12NetInterfaceD1Ev @320
    _ZN12NetInterfaceD2Ev @321
    _ZN12OutputSocket10handleReadEPhjRjR11sockaddr_in @322
    _ZN12OutputSocket5writeEj4PorthPhj @323
    _ZN12OutputSocketC1ER16UsageEnvironment @324
    _ZN12OutputSocketC1ER16UsageEnvironment4Port @325
    _ZN12OutputSocketC2ER16UsageEnvironment @326
    _ZN12OutputSocketC2ER16UsageEnvironment4Port @327
    _ZN12OutputSocketD0Ev @328
    _ZN12OutputSocketD1Ev @329
    _ZN12OutputSocketD2Ev @330
    _ZN12RTCPInstance10removeSSRCEjj @331
    _ZN12RTCPInstance10rescheduleEd @332
    _ZN12RTCPInstance10sendReportEv @333
    _ZN12RTCPInstance12checkNewSSRCEv @334
    _ZN12RTCPInstance12lookupByNameER16UsageEnvironmentPKcRPS_ @335
    _ZN12RTCPInstance12setRRHandlerEPFvPvES0_ @336
    _ZN12RTCPInstance12setSRHandlerEPFvPvES0_ @337
    _ZN12RTCPInstance13setByeHandlerEPFvPvES0_j @338
    _ZN12RTCPInstance15addStreamSocketEih @339
    _ZN12RTCPInstance15sendBuiltPacketEv @340
    _ZN12RTCPInstance15setStreamSocketEih @341
    _ZN12RTCPInstance18enqueueReportBlockEP17RTPReceptionStats @342
    _ZN12RTCPInstance20setSpecificRRHandlerEj4PortPFvPvES1_ @343
    _ZN12RTCPInstance21incomingReportHandlerEPS_i @344
    _ZN12RTCPInstance22incomingReportHandler1Ev @345
    _ZN12RTCPInstance22removeLastReceivedSSRCEv @346
    _ZN12RTCPInstance22unsetSpecificRRHandlerEj4Port @347
    _ZN12RTCPInstance25enqueueCommonReportPrefixEhjj @348
    _ZN12RTCPInstance25enqueueCommonReportSuffixEv @349
    _ZN12RTCPInstance5addRREv @350
    _ZN12RTCPInstance5addSREv @351
    _ZN12RTCPInstance6addBYEEv @352
    _ZN12RTCPInstance7addSDESEv @353
    _ZN12RTCPInstance7sendBYEEv @354
    _ZN12RTCPInstance8onExpireEPS_ @355
    _ZN12RTCPInstance8scheduleEd @356
    _ZN12RTCPInstance9addReportEv @357
    _ZN12RTCPInstance9createNewER16UsageEnvironmentP9GroupsockjPKhP7RTPSinkPK9RTPSourcej @358
    _ZN12RTCPInstance9onExpire1Ev @359
    _ZN12RTCPInstance9onReceiveEiij @360
    _ZN12RTCPInstanceC1ER16UsageEnvironmentP9GroupsockjPKhP7RTPSinkPK9RTPSourcej @361
    _ZN12RTCPInstanceC2ER16UsageEnvironmentP9GroupsockjPKhP7RTPSinkPK9RTPSourcej @362
    _ZN12RTCPInstanceD0Ev @363
    _ZN12RTCPInstanceD1Ev @364
    _ZN12RTCPInstanceD2Ev @365
    _ZN12RTPInterface10handleReadEPhjRjR11sockaddr_inS1_ @366
    _ZN12RTPInterface10sendPacketEPhj @367
    _ZN12RTPInterface15addStreamSocketEih @368
    _ZN12RTPInterface15setStreamSocketEih @369
    _ZN12RTPInterface18removeStreamSocketEih @370
    _ZN12RTPInterface18stopNetworkReadingEv @371
    _ZN12RTPInterface19startNetworkReadingEPFvPviE @372
    _ZN12RTPInterface38setServerRequestAlternativeByteHandlerEPFvPvhES0_ @373
    _ZN12RTPInterfaceC1EP6MediumP9Groupsock @374
    _ZN12RTPInterfaceC2EP6MediumP9Groupsock @375
    _ZN12RTPInterfaceD0Ev @376
    _ZN12RTPInterfaceD1Ev @377
    _ZN12RTPInterfaceD2Ev @378
    _ZN12StreamParser10flushInputEv @379
    _ZN12StreamParser15saveParserStateEv @380
    _ZN12StreamParser17afterGettingBytesEPvjj7timevalj @381
    _ZN12StreamParser17ensureValidBytes1Ej @382
    _ZN12StreamParser23restoreSavedParserStateEv @383
    _ZN12StreamParser7getBitsEj @384
    _ZN12StreamParser8skipBitsEj @385
    _ZN12StreamParserC1EP12FramedSourcePFvPvES2_PFvS2_Phj7timevalES2_ @386
    _ZN12StreamParserC2EP12FramedSourcePFvPvES2_PFvS2_Phj7timevalES2_ @387
    _ZN12StreamParserD0Ev @388
    _ZN12StreamParserD1Ev @389
    _ZN12StreamParserD2Ev @390
    _ZN12VideoRTPSinkC1ER16UsageEnvironmentP9GroupsockhjPKc @391
    _ZN12VideoRTPSinkC2ER16UsageEnvironmentP9GroupsockhjPKc @392
    _ZN12VideoRTPSinkD0Ev @393
    _ZN12VideoRTPSinkD1Ev @394
    _ZN12VideoRTPSinkD2Ev @395
    _ZN13Authenticator16setRealmAndNonceEPKcS1_ @396
    _ZN13Authenticator18resetRealmAndNonceEv @397
    _ZN13Authenticator19assignRealmAndNonceEPKcS1_ @398
    _ZN13Authenticator22setRealmAndRandomNonceEPKc @399
    _ZN13Authenticator22setUsernameAndPasswordEPKcS1_j @400
    _ZN13Authenticator24resetUsernameAndPasswordEv @401
    _ZN13Authenticator25assignUsernameAndPasswordEPKcS1_j @402
    _ZN13Authenticator5resetEv @403
    _ZN13Authenticator6assignEPKcS1_S1_S1_j @404
    _ZN13AuthenticatorC1EPKcS1_ @405
    _ZN13AuthenticatorC1ERKS_ @406
    _ZN13AuthenticatorC1Ev @407
    _ZN13AuthenticatorC2EPKcS1_ @408
    _ZN13AuthenticatorC2ERKS_ @409
    _ZN13AuthenticatorC2Ev @410
    _ZN13AuthenticatorD0Ev @411
    _ZN13AuthenticatorD1Ev @412
    _ZN13AuthenticatorD2Ev @413
    _ZN13AuthenticatoraSERKS_ @414
    _ZN13DvrClientSink15continuePlayingEv @415
    _ZN13DvrClientSink17afterGettingFrameEPvjj7timevalj @416
    _ZN13DvrClientSink18afterGettingFrame1Ej7timeval @417
    _ZN13DvrClientSinkC1ER16UsageEnvironmentP10data_queueii @418
    _ZN13DvrClientSinkC2ER16UsageEnvironmentP10data_queueii @419
    _ZN13DvrClientSinkD0Ev @420
    _ZN13DvrClientSinkD1Ev @421
    _ZN13DvrClientSinkD2Ev @422
    _ZN13DvrRTSPClient12stopCallBackEPS_ @423
    _ZN13DvrRTSPClient14noteServernessEv @424
    _ZN13DvrRTSPClient17continueAfterPLAYEP10RTSPClientiPc @425
    _ZN13DvrRTSPClient17noteServerResponeEPS_ @426
    _ZN13DvrRTSPClient19continueAfterSETUP1EP10RTSPClientiPc @427
    _ZN13DvrRTSPClient19continueAfterSETUP2EP10RTSPClientiPc @428
    _ZN13DvrRTSPClient20continueAfterOPTIONSEP10RTSPClientiPc @429
    _ZN13DvrRTSPClient20subsessionByeHandlerEPv @430
    _ZN13DvrRTSPClient21continueAfterDESCRIBEEP10RTSPClientiPc @431
    _ZN13DvrRTSPClient7reclaimEv @432
    _ZN13DvrRTSPClient9createNewER16UsageEnvironmentPKcP10data_queueiiiiit @433
    _ZN13DvrRTSPClientC1ER16UsageEnvironmentPKcP10data_queueiiiiit @434
    _ZN13DvrRTSPClientC2ER16UsageEnvironmentPKcP10data_queueiiiiit @435
    _ZN13DvrRTSPClientD0Ev @436
    _ZN13DvrRTSPClientD1Ev @437
    _ZN13DvrRTSPClientD2Ev @438
    _ZN13SimpleRTPSink22doSpecialFrameHandlingEjPhj7timevalj @439
    _ZN13SimpleRTPSink9createNewER16UsageEnvironmentP9GroupsockhjPKcS5_jjj @440
    _ZN13SimpleRTPSinkC1ER16UsageEnvironmentP9GroupsockhjPKcS5_jjj @441
    _ZN13SimpleRTPSinkC2ER16UsageEnvironmentP9GroupsockhjPKcS5_jjj @442
    _ZN13SimpleRTPSinkD0Ev @443
    _ZN13SimpleRTPSinkD1Ev @444
    _ZN13SimpleRTPSinkD2Ev @445
    _ZN13TaskScheduler21rescheduleDelayedTaskERPvxPFvS0_ES0_ @446
    _ZN13TaskSchedulerC1Ev @447
    _ZN13TaskSchedulerC2Ev @448
    _ZN13TaskSchedulerD0Ev @449
    _ZN13TaskSchedulerD1Ev @450
    _ZN13TaskSchedulerD2Ev @451
    _ZN14BasicHashTable11deleteEntryEjPNS_10TableEntryE @452
    _ZN14BasicHashTable14insertNewEntryEjPKc @453
    _ZN14BasicHashTable3AddEPKcPv @454
    _ZN14BasicHashTable6RemoveEPKc @455
    _ZN14BasicHashTable7rebuildEv @456
    _ZN14BasicHashTable8Iterator4nextERPKc @457
    _ZN14BasicHashTable8IteratorC1ERS_ @458
    _ZN14BasicHashTable8IteratorC2ERS_ @459
    _ZN14BasicHashTable8IteratorD0Ev @460
    _ZN14BasicHashTable8IteratorD1Ev @461
    _ZN14BasicHashTable9assignKeyEPNS_10TableEntryEPKc @462
    _ZN14BasicHashTable9deleteKeyEPNS_10TableEntryE @463
    _ZN14BasicHashTableC1Ei @464
    _ZN14BasicHashTableC2Ei @465
    _ZN14BasicHashTableD0Ev @466
    _ZN14BasicHashTableD1Ev @467
    _ZN14BasicHashTableD2Ev @468
    _ZN14BasicUDPSource14doGetNextFrameEv @469
    _ZN14BasicUDPSource19doStopGettingFramesEv @470
    _ZN14BasicUDPSource21incomingPacketHandlerEPS_i @471
    _ZN14BasicUDPSource22incomingPacketHandler1Ev @472
    _ZN14BasicUDPSource9createNewER16UsageEnvironmentP9Groupsock @473
    _ZN14BasicUDPSourceC1ER16UsageEnvironmentP9Groupsock @474
    _ZN14BasicUDPSourceC2ER16UsageEnvironmentP9Groupsock @475
    _ZN14BasicUDPSourceD0Ev @476
    _ZN14BasicUDPSourceD1Ev @477
    _ZN14BasicUDPSourceD2Ev @478
    _ZN14BufferedPacket10appendDataEPhj @479
    _ZN14BufferedPacket10fillInDataER12RTPInterfaceRj @480
    _ZN14BufferedPacket13removePaddingEj @481
    _ZN14BufferedPacket16assignMiscParamsEtj7timevaljjS0_ @482
    _ZN14BufferedPacket21nextEnclosedFrameSizeERPhj @483
    _ZN14BufferedPacket30getNextEnclosedFrameParametersERPhjRjS2_ @484
    _ZN14BufferedPacket3useEPhjRjS1_RtS1_R7timevalS1_S1_ @485
    _ZN14BufferedPacket4skipEj @486
    _ZN14BufferedPacket5resetEv @487
    _ZN14BufferedPacketC1Ev @488
    _ZN14BufferedPacketC2Ev @489
    _ZN14BufferedPacketD0Ev @490
    _ZN14BufferedPacketD1Ev @491
    _ZN14BufferedPacketD2Ev @492
    _ZN14DarwinInjector12lookupByNameER16UsageEnvironmentPKcRPS_ @493
    _ZN14DarwinInjector14setDestinationEPKcS1_S1_S1_tS1_S1_S1_S1_i @494
    _ZN14DarwinInjector9addStreamEP7RTPSinkP12RTCPInstance @495
    _ZN14DarwinInjector9createNewER16UsageEnvironmentPKci @496
    _ZN14DarwinInjectorC1ER16UsageEnvironmentPKci @497
    _ZN14DarwinInjectorC2ER16UsageEnvironmentPKci @498
    _ZN14DarwinInjectorD0Ev @499
    _ZN14DarwinInjectorD1Ev @500
    _ZN14DarwinInjectorD2Ev @501
    _ZN14MyDeviceSource12deliverFrameEv @502
    _ZN14MyDeviceSource14doGetNextFrameEv @503
    _ZN14MyDeviceSource7setStopEv @504
    _ZN14MyDeviceSource8setStartEv @505
    _ZN14MyDeviceSource9createNewER16UsageEnvironmentP10data_queue @506
    _ZN14MyDeviceSourceC1ER16UsageEnvironmentP10data_queue @507
    _ZN14MyDeviceSourceC2ER16UsageEnvironmentP10data_queue @508
    _ZN14MyDeviceSourceD0Ev @509
    _ZN14MyDeviceSourceD1Ev @510
    _ZN14MyDeviceSourceD2Ev @511
    _ZN14NetAddressList5cleanEv @512
    _ZN14NetAddressList6assignEjPP10NetAddress @513
    _ZN14NetAddressList8Iterator11nextAddressEv @514
    _ZN14NetAddressList8IteratorC1ERKS_ @515
    _ZN14NetAddressList8IteratorC2ERKS_ @516
    _ZN14NetAddressListC1EPKc @517
    _ZN14NetAddressListC1ERKS_ @518
    _ZN14NetAddressListC2EPKc @519
    _ZN14NetAddressListC2ERKS_ @520
    _ZN14NetAddressListD0Ev @521
    _ZN14NetAddressListD1Ev @522
    _ZN14NetAddressListD2Ev @523
    _ZN14NetAddressListaSERKS_ @524
    _ZN15DelayQueueEntry12tokenCounterE @525 DATA
    _ZN15DelayQueueEntry13handleTimeoutEv @526
    _ZN15DelayQueueEntryC1E13DelayInterval @527
    _ZN15DelayQueueEntryC2E13DelayInterval @528
    _ZN15DelayQueueEntryD0Ev @529
    _ZN15DelayQueueEntryD1Ev @530
    _ZN15DelayQueueEntryD2Ev @531
    _ZN15HandlerIterator4nextEv @532
    _ZN15HandlerIterator5resetEv @533
    _ZN15HandlerIteratorC1ER10HandlerSet @534
    _ZN15HandlerIteratorC2ER10HandlerSet @535
    _ZN15HandlerIteratorD0Ev @536
    _ZN15HandlerIteratorD1Ev @537
    _ZN15HandlerIteratorD2Ev @538
    _ZN15MediaSubsession10deInitiateEv @539
    _ZN15MediaSubsession14parseSDPLine_bEPKc @540
    _ZN15MediaSubsession14parseSDPLine_cEPKc @541
    _ZN15MediaSubsession15setDestinationsEj @542
    _ZN15MediaSubsession16setClientPortNumEt @543
    _ZN15MediaSubsession17getNormalPlayTimeERK7timeval @544
    _ZN15MediaSubsession22parseSDPAttribute_fmtpEPKc @545
    _ZN15MediaSubsession23parseSDPAttribute_rangeEPKc @546
    _ZN15MediaSubsession24parseSDPAttribute_rtpmapEPKc @547
    _ZN15MediaSubsession25parseSDPAttribute_controlEPKc @548
    _ZN15MediaSubsession27parseSDPAttribute_framerateEPKc @549
    _ZN15MediaSubsession30parseSDPAttribute_x_dimensionsEPKc @550
    _ZN15MediaSubsession31parseSDPAttribute_source_filterEPKc @551
    _ZN15MediaSubsession8initiateEi @552
    _ZN15MediaSubsessionC1ER12MediaSession @553
    _ZN15MediaSubsessionC2ER12MediaSession @554
    _ZN15MediaSubsessionD0Ev @555
    _ZN15MediaSubsessionD1Ev @556
    _ZN15MediaSubsessionD2Ev @557
    _ZN15OutPacketBuffer10insertWordEjj @558
    _ZN15OutPacketBuffer11enqueueWordEj @559
    _ZN15OutPacketBuffer11extractWordEj @560
    _ZN15OutPacketBuffer15setOverflowDataEjjRK7timevalj @561
    _ZN15OutPacketBuffer15useOverflowDataEv @562
    _ZN15OutPacketBuffer16resetPacketStartEv @563
    _ZN15OutPacketBuffer17adjustPacketStartEj @564
    _ZN15OutPacketBuffer6insertEPKhjj @565
    _ZN15OutPacketBuffer7enqueueEPKhj @566
    _ZN15OutPacketBuffer7extractEPhjj @567
    _ZN15OutPacketBuffer7maxSizeE @568 DATA
    _ZN15OutPacketBuffer9skipBytesEj @569
    _ZN15OutPacketBufferC1Ejj @570
    _ZN15OutPacketBufferC2Ejj @571
    _ZN15OutPacketBufferD1Ev @572
    _ZN15OutPacketBufferD2Ev @573
    _ZN15SimpleRTPSource20processSpecialHeaderEP14BufferedPacketRj @574
    _ZN15SimpleRTPSource9createNewER16UsageEnvironmentP9GroupsockhjPKcjj @575
    _ZN15SimpleRTPSourceC1ER16UsageEnvironmentP9GroupsockhjPKcjj @576
    _ZN15SimpleRTPSourceC2ER16UsageEnvironmentP9GroupsockhjPKcjj @577
    _ZN15SimpleRTPSourceD0Ev @578
    _ZN15SimpleRTPSourceD1Ev @579
    _ZN15SimpleRTPSourceD2Ev @580
    _ZN15tcpStreamRecordC1EihPS_ @581
    _ZN15tcpStreamRecordC2EihPS_ @582
    _ZN15tcpStreamRecordD0Ev @583
    _ZN15tcpStreamRecordD1Ev @584
    _ZN15tcpStreamRecordD2Ev @585
    _ZN16FramedFileSourceC1ER16UsageEnvironmentP6_iobuf @586
    _ZN16FramedFileSourceC2ER16UsageEnvironmentP6_iobuf @587
    _ZN16FramedFileSourceD0Ev @588
    _ZN16FramedFileSourceD1Ev @589
    _ZN16FramedFileSourceD2Ev @590
    _ZN16G723AudioRTPSink9createNewER16UsageEnvironmentP9Groupsock @591
    _ZN16G723AudioRTPSinkC1ER16UsageEnvironmentP9Groupsock @592
    _ZN16G723AudioRTPSinkC2ER16UsageEnvironmentP9Groupsock @593
    _ZN16G723AudioRTPSinkD0Ev @594
    _ZN16G723AudioRTPSinkD1Ev @595
    _ZN16G723AudioRTPSinkD2Ev @596
    _ZN16H264VideoRTPSink10auxSDPLineEv @597
    _ZN16H264VideoRTPSink11stopPlayingEv @598
    _ZN16H264VideoRTPSink15continuePlayingEv @599
    _ZN16H264VideoRTPSink22doSpecialFrameHandlingEjPhj7timevalj @600
    _ZN16H264VideoRTPSink24sourceIsCompatibleWithUsER11MediaSource @601
    _ZN16H264VideoRTPSink9createNewER16UsageEnvironmentP9GroupsockhjPKc @602
    _ZN16H264VideoRTPSinkC1ER16UsageEnvironmentP9GroupsockhjPKc @603
    _ZN16H264VideoRTPSinkC2ER16UsageEnvironmentP9GroupsockhjPKc @604
    _ZN16H264VideoRTPSinkD0Ev @605
    _ZN16H264VideoRTPSinkD1Ev @606
    _ZN16H264VideoRTPSinkD2Ev @607
    _ZN16MediaLookupTable15generateNewNameEPcj @608
    _ZN16MediaLookupTable6addNewEP6MediumPc @609
    _ZN16MediaLookupTable6removeEPKc @610
    _ZN16MediaLookupTable8ourMediaER16UsageEnvironment @611
    _ZN16MediaLookupTableC1ER16UsageEnvironment @612
    _ZN16MediaLookupTableC2ER16UsageEnvironment @613
    _ZN16MediaLookupTableD0Ev @614
    _ZN16MediaLookupTableD1Ev @615
    _ZN16MediaLookupTableD2Ev @616
    _ZN16SocketDescriptor14tcpReadHandlerEPS_i @617
    _ZN16SocketDescriptor15tcpReadHandler1Ei @618
    _ZN16SocketDescriptor18lookupRTPInterfaceEh @619
    _ZN16SocketDescriptor20registerRTPInterfaceEhP12RTPInterface @620
    _ZN16SocketDescriptor22deregisterRTPInterfaceEh @621
    _ZN16SocketDescriptorC1ER16UsageEnvironmenti @622
    _ZN16SocketDescriptorC2ER16UsageEnvironmenti @623
    _ZN16SocketDescriptorD0Ev @624
    _ZN16SocketDescriptorD1Ev @625
    _ZN16SocketDescriptorD2Ev @626
    _ZN16UsageEnvironment7reclaimEv @627
    _ZN16UsageEnvironmentC1ER13TaskScheduler @628
    _ZN16UsageEnvironmentC2ER13TaskScheduler @629
    _ZN16UsageEnvironmentD0Ev @630
    _ZN16UsageEnvironmentD1Ev @631
    _ZN16UsageEnvironmentD2Ev @632
    _ZN17H264FUAFragmenter14doGetNextFrameEv @633
    _ZN17H264FUAFragmenter17afterGettingFrameEPvjj7timevalj @634
    _ZN17H264FUAFragmenter18afterGettingFrame1Ejj7timevalj @635
    _ZN17H264FUAFragmenterC1ER16UsageEnvironmentP12FramedSourcejj @636
    _ZN17H264FUAFragmenterC2ER16UsageEnvironmentP12FramedSourcejj @637
    _ZN17H264FUAFragmenterD0Ev @638
    _ZN17H264FUAFragmenterD1Ev @639
    _ZN17H264FUAFragmenterD2Ev @640
    _ZN17H264VideoFileSink18afterGettingFrame1Ej7timeval @641
    _ZN17H264VideoFileSink24sourceIsCompatibleWithUsER11MediaSource @642
    _ZN17H264VideoFileSink9createNewER16UsageEnvironmentPKcjj @643
    _ZN17H264VideoFileSinkC1ER16UsageEnvironmentP6_iobufjPKc @644
    _ZN17H264VideoFileSinkC2ER16UsageEnvironmentP6_iobufjPKc @645
    _ZN17H264VideoFileSinkD0Ev @646
    _ZN17H264VideoFileSinkD1Ev @647
    _ZN17H264VideoFileSinkD2Ev @648
    _ZN17HandlerDescriptorC1EPS_ @649
    _ZN17HandlerDescriptorC2EPS_ @650
    _ZN17HandlerDescriptorD0Ev @651
    _ZN17HandlerDescriptorD1Ev @652
    _ZN17HandlerDescriptorD2Ev @653
    _ZN17RTPReceptionStats10initSeqNumEt @654
    _ZN17RTPReceptionStats14noteIncomingSREjjj @655
    _ZN17RTPReceptionStats18noteIncomingPacketEtjjjR7timevalRjj @656
    _ZN17RTPReceptionStats4initEj @657
    _ZN17RTPReceptionStats5resetEv @658
    _ZN17RTPReceptionStatsC1Ej @659
    _ZN17RTPReceptionStatsC1Ejt @660
    _ZN17RTPReceptionStatsC2Ej @661
    _ZN17RTPReceptionStatsC2Ejt @662
    _ZN17RTPReceptionStatsD0Ev @663
    _ZN17RTPReceptionStatsD1Ev @664
    _ZN17RTPReceptionStatsD2Ev @665
    _ZN17SocketLookupTable5FetchER16UsageEnvironment4PortRj @666
    _ZN17SocketLookupTable6RemoveEPK6Socket @667
    _ZN17SocketLookupTableC1Ev @668
    _ZN17SocketLookupTableC2Ev @669
    _ZN17SocketLookupTableD0Ev @670
    _ZN17SocketLookupTableD1Ev @671
    _ZN17SocketLookupTableD2Ev @672
    _ZN18BasicTaskScheduler10SingleStepEj @673
    _ZN18BasicTaskScheduler18moveSocketHandlingEii @674
    _ZN18BasicTaskScheduler21setBackgroundHandlingEiiPFvPviES0_ @675
    _ZN18BasicTaskScheduler9createNewEv @676
    _ZN18BasicTaskSchedulerC1Ev @677
    _ZN18BasicTaskSchedulerC2Ev @678
    _ZN18BasicTaskSchedulerD0Ev @679
    _ZN18BasicTaskSchedulerD1Ev @680
    _ZN18BasicTaskSchedulerD2Ev @681
    _ZN18DvrClientAudioSink13getFramedTypeEPiS0_ @682
    _ZN18DvrClientAudioSink9createNewER16UsageEnvironmentP10data_queueii @683
    _ZN18DvrClientAudioSinkC1ER16UsageEnvironmentP10data_queueii @684
    _ZN18DvrClientAudioSinkC2ER16UsageEnvironmentP10data_queueii @685
    _ZN18DvrClientAudioSinkD0Ev @686
    _ZN18DvrClientAudioSinkD1Ev @687
    _ZN18DvrClientAudioSinkD2Ev @688
    _ZN18DvrClientVideoSink13getFramedTypeEPiS0_ @689
    _ZN18DvrClientVideoSink9createNewER16UsageEnvironmentP10data_queueii @690
    _ZN18DvrClientVideoSinkC1ER16UsageEnvironmentP10data_queueii @691
    _ZN18DvrClientVideoSinkC2ER16UsageEnvironmentP10data_queueii @692
    _ZN18DvrClientVideoSinkD0Ev @693
    _ZN18DvrClientVideoSinkD1Ev @694
    _ZN18DvrClientVideoSinkD2Ev @695
    _ZN18H264BufferedPacket21nextEnclosedFrameSizeERPhj @696
    _ZN18H264BufferedPacketC1ER18H264VideoRTPSource @697
    _ZN18H264BufferedPacketC2ER18H264VideoRTPSource @698
    _ZN18H264BufferedPacketD0Ev @699
    _ZN18H264BufferedPacketD1Ev @700
    _ZN18H264BufferedPacketD2Ev @701
    _ZN18H264VideoRTPSource20processSpecialHeaderEP14BufferedPacketRj @702
    _ZN18H264VideoRTPSource9createNewER16UsageEnvironmentP9Groupsockhj @703
    _ZN18H264VideoRTPSourceC1ER16UsageEnvironmentP9Groupsockhj @704
    _ZN18H264VideoRTPSourceC2ER16UsageEnvironmentP9Groupsockhj @705
    _ZN18H264VideoRTPSourceD0Ev @706
    _ZN18H264VideoRTPSourceD1Ev @707
    _ZN18H264VideoRTPSourceD2Ev @708
    _ZN18MultiFramedRTPSink11stopPlayingEv @709
    _ZN18MultiFramedRTPSink12setMarkerBitEv @710
    _ZN18MultiFramedRTPSink12setTimestampE7timeval @711
    _ZN18MultiFramedRTPSink14setPacketSizesEjj @712
    _ZN18MultiFramedRTPSink15continuePlayingEv @713
    _ZN18MultiFramedRTPSink15setFramePaddingEj @714
    _ZN18MultiFramedRTPSink16ourHandleClosureEPv @715
    _ZN18MultiFramedRTPSink17afterGettingFrameEPvjj7timevalj @716
    _ZN18MultiFramedRTPSink18afterGettingFrame1Ejj7timevalj @717
    _ZN18MultiFramedRTPSink18buildAndSendPacketEj @718
    _ZN18MultiFramedRTPSink20setSpecialHeaderWordEjj @719
    _ZN18MultiFramedRTPSink21sendPacketIfNecessaryEv @720
    _ZN18MultiFramedRTPSink21setSpecialHeaderBytesEPKhjj @721
    _ZN18MultiFramedRTPSink22doSpecialFrameHandlingEjPhj7timevalj @722
    _ZN18MultiFramedRTPSink26setFrameSpecificHeaderWordEjj @723
    _ZN18MultiFramedRTPSink27setFrameSpecificHeaderBytesEPKhjj @724
    _ZN18MultiFramedRTPSink8sendNextEPv @725
    _ZN18MultiFramedRTPSink9packFrameEv @726
    _ZN18MultiFramedRTPSinkC1ER16UsageEnvironmentP9GroupsockhjPKcj @727
    _ZN18MultiFramedRTPSinkC2ER16UsageEnvironmentP9GroupsockhjPKcj @728
    _ZN18MultiFramedRTPSinkD0Ev @729
    _ZN18MultiFramedRTPSinkD1Ev @730
    _ZN18MultiFramedRTPSinkD2Ev @731
    _ZN18RTCPMemberDatabase14reapOldMembersEj @732
    _ZN18RTCPMemberDatabaseD0Ev @733
    _ZN18RTCPMemberDatabaseD1Ev @734
    _ZN18RTSPOverHTTPServer14setUpOurSocketER16UsageEnvironmentR4Port @735
    _ZN18RTSPOverHTTPServer20HTTPClientConnection13handleCmd_badEv @736
    _ZN18RTSPOverHTTPServer20HTTPClientConnection18resetRequestBufferEv @737
    _ZN18RTSPOverHTTPServer20HTTPClientConnection22incomingRequestHandlerEPvi @738
    _ZN18RTSPOverHTTPServer20HTTPClientConnection22parseHTTPRequestStringEPcjS1_jS1_jS1_j @739
    _ZN18RTSPOverHTTPServer20HTTPClientConnection23incomingRequestHandler1Ev @740
    _ZN18RTSPOverHTTPServer20HTTPClientConnectionC1ERS_i @741
    _ZN18RTSPOverHTTPServer20HTTPClientConnectionC2ERS_i @742
    _ZN18RTSPOverHTTPServer20HTTPClientConnectionD0Ev @743
    _ZN18RTSPOverHTTPServer20HTTPClientConnectionD1Ev @744
    _ZN18RTSPOverHTTPServer20HTTPClientConnectionD2Ev @745
    _ZN18RTSPOverHTTPServer25incomingConnectionHandlerEPvi @746
    _ZN18RTSPOverHTTPServer26incomingConnectionHandler1Ev @747
    _ZN18RTSPOverHTTPServer9createNewER16UsageEnvironment4PortS2_PKc @748
    _ZN18RTSPOverHTTPServerC1ER16UsageEnvironmenti4PortPKc @749
    _ZN18RTSPOverHTTPServerC2ER16UsageEnvironmenti4PortPKc @750
    _ZN18RTSPOverHTTPServerD0Ev @751
    _ZN18RTSPOverHTTPServerD1Ev @752
    _ZN18RTSPOverHTTPServerD2Ev @753
    _ZN18ServerMediaSession12lookupByNameER16UsageEnvironmentPKcRPS_ @754
    _ZN18ServerMediaSession13addSubsessionEP21ServerMediaSubsession @755
    _ZN18ServerMediaSession15testScaleFactorERf @756
    _ZN18ServerMediaSession22generateSDPDescriptionEv @757
    _ZN18ServerMediaSession9createNewER16UsageEnvironmentPKcS3_S3_jS3_ @758
    _ZN18ServerMediaSessionC1ER16UsageEnvironmentPKcS3_S3_jS3_ @759
    _ZN18ServerMediaSessionC2ER16UsageEnvironmentPKcS3_S3_jS3_ @760
    _ZN18ServerMediaSessionD0Ev @761
    _ZN18ServerMediaSessionD1Ev @762
    _ZN18ServerMediaSessionD2Ev @763
    _ZN19BasicTaskScheduler011doEventLoopEPc @764
    _ZN19BasicTaskScheduler019scheduleDelayedTaskExPFvPvES0_ @765
    _ZN19BasicTaskScheduler021unscheduleDelayedTaskERPv @766
    _ZN19BasicTaskScheduler0C1Ev @767
    _ZN19BasicTaskScheduler0C2Ev @768
    _ZN19BasicTaskScheduler0D0Ev @769
    _ZN19BasicTaskScheduler0D1Ev @770
    _ZN19BasicTaskScheduler0D2Ev @771
    _ZN19RTPReceptionStatsDB12removeRecordEj @772
    _ZN19RTPReceptionStatsDB14noteIncomingSREjjjj @773
    _ZN19RTPReceptionStatsDB18noteIncomingPacketEjtjjjR7timevalRjj @774
    _ZN19RTPReceptionStatsDB3addEjP17RTPReceptionStats @775
    _ZN19RTPReceptionStatsDB5resetEv @776
    _ZN19RTPReceptionStatsDB8Iterator4nextEj @777
    _ZN19RTPReceptionStatsDB8IteratorC1ERS_ @778
    _ZN19RTPReceptionStatsDB8IteratorC2ERS_ @779
    _ZN19RTPReceptionStatsDB8IteratorD0Ev @780
    _ZN19RTPReceptionStatsDB8IteratorD1Ev @781
    _ZN19RTPReceptionStatsDB8IteratorD2Ev @782
    _ZN19RTPReceptionStatsDBC1Ev @783
    _ZN19RTPReceptionStatsDBC2Ev @784
    _ZN19RTPReceptionStatsDBD0Ev @785
    _ZN19RTPReceptionStatsDBD1Ev @786
    _ZN19RTPReceptionStatsDBD2Ev @787
    _ZN19SubstreamDescriptorC1EP7RTPSinkP12RTCPInstancej @788
    _ZN19SubstreamDescriptorC2EP7RTPSinkP12RTCPInstancej @789
    _ZN19SubstreamDescriptorD1Ev @790
    _ZN19SubstreamDescriptorD2Ev @791
    _ZN20ByteStreamFileSource14doGetNextFrameEv @792
    _ZN20ByteStreamFileSource14doReadFromFileEv @793
    _ZN20ByteStreamFileSource18seekToByteAbsoluteEy @794
    _ZN20ByteStreamFileSource18seekToByteRelativeEx @795
    _ZN20ByteStreamFileSource19doStopGettingFramesEv @796
    _ZN20ByteStreamFileSource19fileReadableHandlerEPS_i @797
    _ZN20ByteStreamFileSource9createNewER16UsageEnvironmentP6_iobufjjj @798
    _ZN20ByteStreamFileSource9createNewER16UsageEnvironmentPKcjj @799
    _ZN20ByteStreamFileSourceC1ER16UsageEnvironmentP6_iobufjjj @800
    _ZN20ByteStreamFileSourceC2ER16UsageEnvironmentP6_iobufjjj @801
    _ZN20ByteStreamFileSourceD0Ev @802
    _ZN20ByteStreamFileSourceD1Ev @803
    _ZN20ByteStreamFileSourceD2Ev @804
    _ZN20DirectedNetInterfaceC1Ev @805
    _ZN20DirectedNetInterfaceC2Ev @806
    _ZN20DirectedNetInterfaceD0Ev @807
    _ZN20DirectedNetInterfaceD1Ev @808
    _ZN20DirectedNetInterfaceD2Ev @809
    _ZN20GroupsockLookupTable5FetchER16UsageEnvironmentj4PorthRj @810
    _ZN20GroupsockLookupTable5FetchER16UsageEnvironmentjj4PortRj @811
    _ZN20GroupsockLookupTable6AddNewER16UsageEnvironmentjj4Porth @812
    _ZN20GroupsockLookupTable6LookupER16UsageEnvironmenti @813
    _ZN20GroupsockLookupTable6LookupEj4Port @814
    _ZN20GroupsockLookupTable6LookupEjj4Port @815
    _ZN20GroupsockLookupTable6RemoveEPK9Groupsock @816
    _ZN20GroupsockLookupTable8Iterator4nextEv @817
    _ZN20GroupsockLookupTable8IteratorC1ERS_ @818
    _ZN20GroupsockLookupTable8IteratorC2ERS_ @819
    _ZN20MultiFramedRTPSource14doGetNextFrameEv @820
    _ZN20MultiFramedRTPSource15doGetNextFrame1Ev @821
    _ZN20MultiFramedRTPSource18networkReadHandlerEPS_i @822
    _ZN20MultiFramedRTPSource19doStopGettingFramesEv @823
    _ZN20MultiFramedRTPSource19networkReadHandler1Ev @824
    _ZN20MultiFramedRTPSource20processSpecialHeaderEP14BufferedPacketRj @825
    _ZN20MultiFramedRTPSource32setPacketReorderingThresholdTimeEj @826
    _ZN20MultiFramedRTPSource33packetIsUsableInJitterCalculationEPhj @827
    _ZN20MultiFramedRTPSource5resetEv @828
    _ZN20MultiFramedRTPSourceC1ER16UsageEnvironmentP9GroupsockhjP21BufferedPacketFactory @829
    _ZN20MultiFramedRTPSourceC2ER16UsageEnvironmentP9GroupsockhjP21BufferedPacketFactory @830
    _ZN20MultiFramedRTPSourceD0Ev @831
    _ZN20MultiFramedRTPSourceD1Ev @832
    _ZN20MultiFramedRTPSourceD2Ev @833
    _ZN20RTPTransmissionStats14noteIncomingRRERK11sockaddr_injjjjj @834
    _ZN20RTPTransmissionStats18getTotalOctetCountERjS0_ @835
    _ZN20RTPTransmissionStats19getTotalPacketCountERjS0_ @836
    _ZN20RTPTransmissionStatsC1ER7RTPSinkj @837
    _ZN20RTPTransmissionStatsC2ER7RTPSinkj @838
    _ZN20RTPTransmissionStatsD0Ev @839
    _ZN20RTPTransmissionStatsD1Ev @840
    _ZN20RTPTransmissionStatsD2Ev @841
    _ZN21BasicUsageEnvironment9createNewER13TaskScheduler @842
    _ZN21BasicUsageEnvironmentC1ER13TaskScheduler @843
    _ZN21BasicUsageEnvironmentC2ER13TaskScheduler @844
    _ZN21BasicUsageEnvironmentD0Ev @845
    _ZN21BasicUsageEnvironmentD1Ev @846
    _ZN21BasicUsageEnvironmentD2Ev @847
    _ZN21BasicUsageEnvironmentlsEPKc @848
    _ZN21BasicUsageEnvironmentlsEPv @849
    _ZN21BasicUsageEnvironmentlsEd @850
    _ZN21BasicUsageEnvironmentlsEi @851
    _ZN21BasicUsageEnvironmentlsEj @852
    _ZN21BufferedPacketFactory15createNewPacketEP20MultiFramedRTPSource @853
    _ZN21BufferedPacketFactoryC1Ev @854
    _ZN21BufferedPacketFactoryC2Ev @855
    _ZN21BufferedPacketFactoryD0Ev @856
    _ZN21BufferedPacketFactoryD1Ev @857
    _ZN21BufferedPacketFactoryD2Ev @858
    _ZN21ServerMediaSubsession10seekStreamEjPvd @859
    _ZN21ServerMediaSubsession11pauseStreamEjPv @860
    _ZN21ServerMediaSubsession12deleteStreamEjRPv @861
    _ZN21ServerMediaSubsession14setStreamScaleEjPvf @862
    _ZN21ServerMediaSubsession15testScaleFactorERf @863
    _ZN21ServerMediaSubsession29setServerAddressAndPortForSDPEjt @864
    _ZN21ServerMediaSubsession7trackIdEv @865
    _ZN21ServerMediaSubsessionC1ER16UsageEnvironment @866
    _ZN21ServerMediaSubsessionC2ER16UsageEnvironment @867
    _ZN21ServerMediaSubsessionD0Ev @868
    _ZN21ServerMediaSubsessionD1Ev @869
    _ZN21ServerMediaSubsessionD2Ev @870
    _ZN22AddressPortLookupTable3AddEjj4PortPv @871
    _ZN22AddressPortLookupTable6LookupEjj4Port @872
    _ZN22AddressPortLookupTable6RemoveEjj4Port @873
    _ZN22AddressPortLookupTable8Iterator4nextEv @874
    _ZN22AddressPortLookupTable8IteratorC1ERS_ @875
    _ZN22AddressPortLookupTable8IteratorC2ERS_ @876
    _ZN22AddressPortLookupTable8IteratorD0Ev @877
    _ZN22AddressPortLookupTable8IteratorD1Ev @878
    _ZN22AddressPortLookupTable8IteratorD2Ev @879
    _ZN22AddressPortLookupTableC1Ev @880
    _ZN22AddressPortLookupTableC2Ev @881
    _ZN22AddressPortLookupTableD0Ev @882
    _ZN22AddressPortLookupTableD1Ev @883
    _ZN22AddressPortLookupTableD2Ev @884
    _ZN22BasicUsageEnvironment012setResultMsgEPKc @885
    _ZN22BasicUsageEnvironment012setResultMsgEPKcS1_ @886
    _ZN22BasicUsageEnvironment012setResultMsgEPKcS1_S1_ @887
    _ZN22BasicUsageEnvironment015setResultErrMsgEPKci @888
    _ZN22BasicUsageEnvironment017appendToResultMsgEPKc @889
    _ZN22BasicUsageEnvironment021reportBackgroundErrorEv @890
    _ZN22BasicUsageEnvironment05resetEv @891
    _ZN22BasicUsageEnvironment0C1ER13TaskScheduler @892
    _ZN22BasicUsageEnvironment0C2ER13TaskScheduler @893
    _ZN22BasicUsageEnvironment0D0Ev @894
    _ZN22BasicUsageEnvironment0D1Ev @895
    _ZN22BasicUsageEnvironment0D2Ev @896
    _ZN22RTPTransmissionStatsDB12removeRecordEj @897
    _ZN22RTPTransmissionStatsDB14noteIncomingRREjRK11sockaddr_injjjjj @898
    _ZN22RTPTransmissionStatsDB3addEjP20RTPTransmissionStats @899
    _ZN22RTPTransmissionStatsDB8Iterator4nextEv @900
    _ZN22RTPTransmissionStatsDB8IteratorC1ERS_ @901
    _ZN22RTPTransmissionStatsDB8IteratorC2ERS_ @902
    _ZN22RTPTransmissionStatsDB8IteratorD0Ev @903
    _ZN22RTPTransmissionStatsDB8IteratorD1Ev @904
    _ZN22RTPTransmissionStatsDB8IteratorD2Ev @905
    _ZN22RTPTransmissionStatsDBC1ER7RTPSink @906
    _ZN22RTPTransmissionStatsDBC2ER7RTPSink @907
    _ZN22RTPTransmissionStatsDBD0Ev @908
    _ZN22RTPTransmissionStatsDBD1Ev @909
    _ZN22RTPTransmissionStatsDBD2Ev @910
    _ZN22ReorderingPacketBuffer11storePacketEP14BufferedPacket @911
    _ZN22ReorderingPacketBuffer13getFreePacketEP20MultiFramedRTPSource @912
    _ZN22ReorderingPacketBuffer17releaseUsedPacketEP14BufferedPacket @913
    _ZN22ReorderingPacketBuffer22getNextCompletedPacketERj @914
    _ZN22ReorderingPacketBuffer5resetEv @915
    _ZN22ReorderingPacketBufferC1EP21BufferedPacketFactory @916
    _ZN22ReorderingPacketBufferC2EP21BufferedPacketFactory @917
    _ZN22ReorderingPacketBufferD0Ev @918
    _ZN22ReorderingPacketBufferD1Ev @919
    _ZN22ReorderingPacketBufferD2Ev @920
    _ZN23DirectedNetInterfaceSet3AddEPK20DirectedNetInterface @921
    _ZN23DirectedNetInterfaceSet6RemoveEPK20DirectedNetInterface @922
    _ZN23DirectedNetInterfaceSet8Iterator4nextEv @923
    _ZN23DirectedNetInterfaceSet8IteratorC1ERS_ @924
    _ZN23DirectedNetInterfaceSet8IteratorC2ERS_ @925
    _ZN23DirectedNetInterfaceSet8IteratorD0Ev @926
    _ZN23DirectedNetInterfaceSet8IteratorD1Ev @927
    _ZN23DirectedNetInterfaceSet8IteratorD2Ev @928
    _ZN23DirectedNetInterfaceSetC1Ev @929
    _ZN23DirectedNetInterfaceSetC2Ev @930
    _ZN23DirectedNetInterfaceSetD0Ev @931
    _ZN23DirectedNetInterfaceSetD1Ev @932
    _ZN23DirectedNetInterfaceSetD2Ev @933
    _ZN23MediaSubsessionIterator4nextEv @934
    _ZN23MediaSubsessionIterator5resetEv @935
    _ZN23MediaSubsessionIteratorC1ER12MediaSession @936
    _ZN23MediaSubsessionIteratorC2ER12MediaSession @937
    _ZN23MediaSubsessionIteratorD0Ev @938
    _ZN23MediaSubsessionIteratorD1Ev @939
    _ZN23MediaSubsessionIteratorD2Ev @940
    _ZN24DvrServerMediaSubsession11startStreamEjPvPFvS0_ES0_RtRjPFvS0_hES0_ @941
    _ZN24DvrServerMediaSubsession12deleteStreamEjRPv @942
    _ZN24DvrServerMediaSubsession13prepareSourceEv @943
    _ZN24DvrServerMediaSubsession19getStreamParametersEjjRK4PortS2_ihhRjRhS3_RS0_S5_RPv @944
    _ZN24DvrServerMediaSubsession7reclaimEv @945
    _ZN24DvrServerMediaSubsession8sdpLinesEv @946
    _ZN24DvrServerMediaSubsessionC1ER16UsageEnvironmentj7in_addrtP10data_queue @947
    _ZN24DvrServerMediaSubsessionC2ER16UsageEnvironmentj7in_addrtP10data_queue @948
    _ZN24DvrServerMediaSubsessionD0Ev @949
    _ZN24DvrServerMediaSubsessionD1Ev @950
    _ZN24DvrServerMediaSubsessionD2Ev @951
    _ZN24NetInterfaceTrafficStats11countPacketEj @952
    _ZN24NetInterfaceTrafficStatsC1Ev @953
    _ZN24NetInterfaceTrafficStatsC2Ev @954
    _ZN25ByteStreamMultiFileSource14doGetNextFrameEv @955
    _ZN25ByteStreamMultiFileSource15onSourceClosureEPv @956
    _ZN25ByteStreamMultiFileSource16onSourceClosure1Ev @957
    _ZN25ByteStreamMultiFileSource17afterGettingFrameEPvjj7timevalj @958
    _ZN25ByteStreamMultiFileSource9createNewER16UsageEnvironmentPPKcjj @959
    _ZN25ByteStreamMultiFileSourceC1ER16UsageEnvironmentPPKcjj @960
    _ZN25ByteStreamMultiFileSourceC2ER16UsageEnvironmentPPKcjj @961
    _ZN25ByteStreamMultiFileSourceD0Ev @962
    _ZN25ByteStreamMultiFileSourceD1Ev @963
    _ZN25ByteStreamMultiFileSourceD2Ev @964
    _ZN25H264BufferedPacketFactory15createNewPacketEP20MultiFramedRTPSource @965
    _ZN25H264BufferedPacketFactoryD0Ev @966
    _ZN25H264BufferedPacketFactoryD1Ev @967
    _ZN26UserAuthenticationDatabase13addUserRecordEPKcS1_ @968
    _ZN26UserAuthenticationDatabase14lookupPasswordEPKc @969
    _ZN26UserAuthenticationDatabase16removeUserRecordEPKc @970
    _ZN26UserAuthenticationDatabaseC1EPKcj @971
    _ZN26UserAuthenticationDatabaseC2EPKcj @972
    _ZN26UserAuthenticationDatabaseD0Ev @973
    _ZN26UserAuthenticationDatabaseD1Ev @974
    _ZN26UserAuthenticationDatabaseD2Ev @975
    _ZN28DvrG723ServerMediaSubsession13createRTPSinkEP9GroupsockP12FramedSource @976
    _ZN28DvrG723ServerMediaSubsession17sourceStopPlayingEP12FramedSource @977
    _ZN28DvrG723ServerMediaSubsession18createStreamSourceEP10data_queueRj @978
    _ZN28DvrG723ServerMediaSubsession18sourceStartPlayingEP12FramedSource @979
    _ZN28DvrG723ServerMediaSubsession9createNewER16UsageEnvironmentj7in_addrtP10data_queue @980
    _ZN28DvrG723ServerMediaSubsessionC1ER16UsageEnvironmentj7in_addrtP10data_queue @981
    _ZN28DvrG723ServerMediaSubsessionC2ER16UsageEnvironmentj7in_addrtP10data_queue @982
    _ZN28DvrG723ServerMediaSubsessionD0Ev @983
    _ZN28DvrG723ServerMediaSubsessionD1Ev @984
    _ZN28DvrG723ServerMediaSubsessionD2Ev @985
    _ZN28DvrH264ServerMediaSubsession13createRTPSinkEP9GroupsockP12FramedSource @986
    _ZN28DvrH264ServerMediaSubsession17sourceStopPlayingEP12FramedSource @987
    _ZN28DvrH264ServerMediaSubsession18createStreamSourceEP10data_queueRj @988
    _ZN28DvrH264ServerMediaSubsession18sourceStartPlayingEP12FramedSource @989
    _ZN28DvrH264ServerMediaSubsession9createNewER16UsageEnvironmentj7in_addrtP10data_queue @990
    _ZN28DvrH264ServerMediaSubsessionC1ER16UsageEnvironmentj7in_addrtP10data_queue @991
    _ZN28DvrH264ServerMediaSubsessionC2ER16UsageEnvironmentj7in_addrtP10data_queue @992
    _ZN28DvrH264ServerMediaSubsessionD0Ev @993
    _ZN28DvrH264ServerMediaSubsessionD1Ev @994
    _ZN28DvrH264ServerMediaSubsessionD2Ev @995
    _ZN28PassiveServerMediaSubsession11startStreamEjPvPFvS0_ES0_RtRjPFvS0_hES0_ @996
    _ZN28PassiveServerMediaSubsession19getStreamParametersEjjRK4PortS2_ihhRjRhS3_RS0_S5_RPv @997
    _ZN28PassiveServerMediaSubsession8sdpLinesEv @998
    _ZN28PassiveServerMediaSubsession9createNewER7RTPSinkP12RTCPInstance @999
    _ZN28PassiveServerMediaSubsessionC1ER7RTPSinkP12RTCPInstance @1000
    _ZN28PassiveServerMediaSubsessionC2ER7RTPSinkP12RTCPInstance @1001
    _ZN28PassiveServerMediaSubsessionD0Ev @1002
    _ZN28PassiveServerMediaSubsessionD1Ev @1003
    _ZN28PassiveServerMediaSubsessionD2Ev @1004
    _ZN29ServerMediaSubsessionIterator4nextEv @1005
    _ZN29ServerMediaSubsessionIterator5resetEv @1006
    _ZN29ServerMediaSubsessionIteratorC1ER18ServerMediaSession @1007
    _ZN29ServerMediaSubsessionIteratorC2ER18ServerMediaSession @1008
    _ZN29ServerMediaSubsessionIteratorD0Ev @1009
    _ZN29ServerMediaSubsessionIteratorD1Ev @1010
    _ZN29ServerMediaSubsessionIteratorD2Ev @1011
    _ZN4PortC1Et @1012
    _ZN4PortC2Et @1013
    _ZN5Scope5cleanEv @1014
    _ZN5Scope6assignEhPKc @1015
    _ZN5ScopeC1ERKS_ @1016
    _ZN5ScopeC1EhPKc @1017
    _ZN5ScopeC2ERKS_ @1018
    _ZN5ScopeC2EhPKc @1019
    _ZN5ScopeD1Ev @1020
    _ZN5ScopeD2Ev @1021
    _ZN5ScopeaSERKS_ @1022
    _ZN6LocaleC1EPKci @1023
    _ZN6LocaleC2EPKci @1024
    _ZN6LocaleD0Ev @1025
    _ZN6LocaleD1Ev @1026
    _ZN6LocaleD2Ev @1027
    _ZN6Medium12lookupByNameER16UsageEnvironmentPKcRPS_ @1028
    _ZN6Medium5closeEPS_ @1029
    _ZN6Medium5closeER16UsageEnvironmentPKc @1030
    _ZN6MediumC1ER16UsageEnvironment @1031
    _ZN6MediumC2ER16UsageEnvironment @1032
    _ZN6MediumD0Ev @1033
    _ZN6MediumD1Ev @1034
    _ZN6MediumD2Ev @1035
    _ZN6Socket10DebugLevelE @1036 DATA
    _ZN6Socket10changePortE4Port @1037
    _ZN6SocketC1ER16UsageEnvironment4Port @1038
    _ZN6SocketC2ER16UsageEnvironment4Port @1039
    _ZN6SocketD0Ev @1040
    _ZN6SocketD1Ev @1041
    _ZN6SocketD2Ev @1042
    _ZN7NoReuseC1Ev @1043
    _ZN7NoReuseC2Ev @1044
    _ZN7NoReuseD1Ev @1045
    _ZN7NoReuseD2Ev @1046
    _ZN7RTPSink10auxSDPLineEv @1047
    _ZN7RTPSink12lookupByNameER16UsageEnvironmentPKcRPS_ @1048
    _ZN7RTPSink15getTotalBitrateERjRd @1049
    _ZN7RTPSink19presetNextTimestampEv @1050
    _ZN7RTPSink21convertToRTPTimestampE7timeval @1051
    _ZN7RTPSinkC1ER16UsageEnvironmentP9GroupsockhjPKcj @1052
    _ZN7RTPSinkC2ER16UsageEnvironmentP9GroupsockhjPKcj @1053
    _ZN7RTPSinkD0Ev @1054
    _ZN7RTPSinkD1Ev @1055
    _ZN7RTPSinkD2Ev @1056
    _ZN7TimevalmIERK13DelayInterval @1057
    _ZN7TimevalpLERK13DelayInterval @1058
    _ZN7_Tables12getOurTablesER16UsageEnvironmentj @1059
    _ZN7_Tables17reclaimIfPossibleEv @1060
    _ZN7_TablesC1ER16UsageEnvironment @1061
    _ZN7_TablesC2ER16UsageEnvironment @1062
    _ZN7_TablesD0Ev @1063
    _ZN7_TablesD1Ev @1064
    _ZN7_TablesD2Ev @1065
    _ZN8FileSink15continuePlayingEv @1066
    _ZN8FileSink17afterGettingFrameEPvjj7timevalj @1067
    _ZN8FileSink18afterGettingFrame1Ej7timeval @1068
    _ZN8FileSink7addDataEPhj7timeval @1069
    _ZN8FileSink9createNewER16UsageEnvironmentPKcjj @1070
    _ZN8FileSinkC1ER16UsageEnvironmentP6_iobufjPKc @1071
    _ZN8FileSinkC2ER16UsageEnvironmentP6_iobufjPKc @1072
    _ZN8FileSinkD0Ev @1073
    _ZN8FileSinkD1Ev @1074
    _ZN8FileSinkD2Ev @1075
    _ZN8GroupEId4initERK7in_addrS2_tRK5Scopej @1076
    _ZN8GroupEIdC1ERK7in_addrS2_tj @1077
    _ZN8GroupEIdC1ERK7in_addrtRK5Scopej @1078
    _ZN8GroupEIdC1Ev @1079
    _ZN8GroupEIdC2ERK7in_addrS2_tj @1080
    _ZN8GroupEIdC2ERK7in_addrtRK5Scopej @1081
    _ZN8GroupEIdC2Ev @1082
    _ZN8HTTPSink13appendPortNumER16UsageEnvironmentRK4Port @1083
    _ZN8HTTPSink14isUseableFrameEPhj @1084
    _ZN8HTTPSink14setUpOurSocketER16UsageEnvironmentR4Port @1085
    _ZN8HTTPSink15continuePlayingEv @1086
    _ZN8HTTPSink17afterGettingFrameEPvjj7timevalj @1087
    _ZN8HTTPSink18afterGettingFrame1Ej7timeval @1088
    _ZN8HTTPSink18ourOnSourceClosureEPv @1089
    _ZN8HTTPSink9createNewER16UsageEnvironment4Port @1090
    _ZN8HTTPSinkC1ER16UsageEnvironmenti @1091
    _ZN8HTTPSinkC2ER16UsageEnvironmenti @1092
    _ZN8HTTPSinkD0Ev @1093
    _ZN8HTTPSinkD1Ev @1094
    _ZN8HTTPSinkD2Ev @1095
    _ZN8SDESItemC1EhPKh @1096
    _ZN8SDESItemC2EhPKh @1097
    _ZN9BitVector5setupEPhjj @1098
    _ZN9BitVector7get1BitEv @1099
    _ZN9BitVector7getBitsEj @1100
    _ZN9BitVector7put1BitEj @1101
    _ZN9BitVector7putBitsEjj @1102
    _ZN9BitVector8skipBitsEj @1103
    _ZN9BitVectorC1EPhjj @1104
    _ZN9BitVectorC2EPhjj @1105
    _ZN9Groupsock10handleReadEPhjRjR11sockaddr_in @1106
    _ZN9Groupsock13statsIncomingE @1107 DATA
    _ZN9Groupsock13statsOutgoingE @1108 DATA
    _ZN9Groupsock14addDestinationERK7in_addrRK4Port @1109
    _ZN9Groupsock17multicastSendOnlyEv @1110
    _ZN9Groupsock17removeDestinationERK7in_addrRK4Port @1111
    _ZN9Groupsock19wasLoopedBackFromUsER16UsageEnvironmentR11sockaddr_in @1112
    _ZN9Groupsock20statsRelayedIncomingE @1113 DATA
    _ZN9Groupsock20statsRelayedOutgoingE @1114 DATA
    _ZN9Groupsock21removeAllDestinationsEv @1115
    _ZN9Groupsock24outputToAllMembersExceptEP20DirectedNetInterfacehPhjj @1116
    _ZN9Groupsock27changeDestinationParametersERK7in_addr4Porti @1117
    _ZN9Groupsock6outputER16UsageEnvironmenthPhjP20DirectedNetInterface @1118
    _ZN9GroupsockC1ER16UsageEnvironmentRK7in_addr4Porth @1119
    _ZN9GroupsockC1ER16UsageEnvironmentRK7in_addrS4_4Port @1120
    _ZN9GroupsockC2ER16UsageEnvironmentRK7in_addr4Porth @1121
    _ZN9GroupsockC2ER16UsageEnvironmentRK7in_addrS4_4Port @1122
    _ZN9GroupsockD0Ev @1123
    _ZN9GroupsockD1Ev @1124
    _ZN9GroupsockD2Ev @1125
    _ZN9HashTable10RemoveNextEv @1126
    _ZN9HashTable6createEi @1127
    _ZN9HashTable8Iterator6createERS_ @1128
    _ZN9HashTable8IteratorC1Ev @1129
    _ZN9HashTable8IteratorC2Ev @1130
    _ZN9HashTable8IteratorD0Ev @1131
    _ZN9HashTable8IteratorD1Ev @1132
    _ZN9HashTable8IteratorD2Ev @1133
    _ZN9HashTableC1Ev @1134
    _ZN9HashTableC2Ev @1135
    _ZN9HashTableD0Ev @1136
    _ZN9HashTableD1Ev @1137
    _ZN9HashTableD2Ev @1138
    _ZN9MediaSink11stopPlayingEv @1139
    _ZN9MediaSink12lookupByNameER16UsageEnvironmentPKcRPS_ @1140
    _ZN9MediaSink12startPlayingER11MediaSourcePFvPvES2_ @1141
    _ZN9MediaSink15onSourceClosureEPv @1142
    _ZN9MediaSink24sourceIsCompatibleWithUsER11MediaSource @1143
    _ZN9MediaSinkC1ER16UsageEnvironment @1144
    _ZN9MediaSinkC2ER16UsageEnvironment @1145
    _ZN9MediaSinkD0Ev @1146
    _ZN9MediaSinkD1Ev @1147
    _ZN9MediaSinkD2Ev @1148
    _ZN9RTPSource12lookupByNameER16UsageEnvironmentPKcRPS_ @1149
    _ZN9RTPSource28hasBeenSynchronizedUsingRTCPEv @1150
    _ZN9RTPSourceC1ER16UsageEnvironmentP9Groupsockhj @1151
    _ZN9RTPSourceC2ER16UsageEnvironmentP9Groupsockhj @1152
    _ZN9RTPSourceD0Ev @1153
    _ZN9RTPSourceD1Ev @1154
    _ZN9RTPSourceD2Ev @1155
    _ZNK10RTSPClient10sessionURLERK12MediaSession @1156
    _ZNK10RTSPClient12isRTSPClientEv @1157
    _ZNK10RTSPServer12isRTSPServerEv @1158
    _ZNK10RTSPServer13rtspURLPrefixEi @1159
    _ZNK10RTSPServer7rtspURLEPK18ServerMediaSessioni @1160
    _ZNK11MediaSource11isRTPSourceEv @1161
    _ZNK11MediaSource13getAttributesEv @1162
    _ZNK11MediaSource14isFramedSourceEv @1163
    _ZNK11MediaSource16isAMRAudioSourceEv @1164
    _ZNK11MediaSource17isJPEGVideoSourceEv @1165
    _ZNK11MediaSource21isDVVideoStreamFramerEv @1166
    _ZNK11MediaSource23isH264VideoStreamFramerEv @1167
    _ZNK11MediaSource24isMPEG4VideoStreamFramerEv @1168
    _ZNK11MediaSource27isMPEG1or2VideoStreamFramerEv @1169
    _ZNK11MediaSource8MIMEtypeEv @1170
    _ZNK11MediaSource8isSourceEv @1171
    _ZNK12AudioRTPSink12sdpMediaTypeEv @1172
    _ZNK12FramedFilter13getAttributesEv @1173
    _ZNK12FramedFilter8MIMEtypeEv @1174
    _ZNK12FramedSource12maxFrameSizeEv @1175
    _ZNK12FramedSource14isFramedSourceEv @1176
    _ZNK12MediaSession14isMediaSessionEv @1177
    _ZNK12RTCPInstance10numMembersEv @1178
    _ZNK12RTCPInstance14isRTCPInstanceEv @1179
    _ZNK12VideoRTPSink12sdpMediaTypeEv @1180
    _ZNK13Authenticator21computeDigestResponseEPKcS1_ @1181
    _ZNK13Authenticator21reclaimDigestResponseEPKc @1182
    _ZNK13SimpleRTPSink12sdpMediaTypeEv @1183
    _ZNK13SimpleRTPSink30frameCanAppearAfterPacketStartEPKhj @1184
    _ZNK14BasicHashTable10keyMatchesEPKcS1_ @1185
    _ZNK14BasicHashTable10numEntriesEv @1186
    _ZNK14BasicHashTable16hashIndexFromKeyEPKc @1187
    _ZNK14BasicHashTable6LookupEPKc @1188
    _ZNK14BasicHashTable9lookupKeyEPKcRj @1189
    _ZNK14DarwinInjector16isDarwinInjectorEv @1190
    _ZNK14MyDeviceSource23isH264VideoStreamFramerEv @1191
    _ZNK14NetAddressList12firstAddressEv @1192
    _ZNK15MediaSubsession11playEndTimeEv @1193
    _ZNK15MediaSubsession13playStartTimeEv @1194
    _ZNK15MediaSubsession25connectionEndpointAddressEv @1195
    _ZNK15SimpleRTPSource8MIMEtypeEv @1196
    _ZNK16G723AudioRTPSink30frameCanAppearAfterPacketStartEPKhj @1197
    _ZNK16H264VideoRTPSink30frameCanAppearAfterPacketStartEPKhj @1198
    _ZNK16MediaLookupTable6lookupEPKc @1199
    _ZNK17RTPReceptionStats20totNumKBytesReceivedEv @1200
    _ZNK17RTPReceptionStats6jitterEv @1201
    _ZNK18H264VideoRTPSource8MIMEtypeEv @1202
    _ZNK18MultiFramedRTPSink17specialHeaderSizeEv @1203
    _ZNK18MultiFramedRTPSink18isTooBigForAPacketEj @1204
    _ZNK18MultiFramedRTPSink23frameSpecificHeaderSizeEv @1205
    _ZNK18MultiFramedRTPSink26computeOverflowForNewFrameEj @1206
    _ZNK18MultiFramedRTPSink28allowFragmentationAfterStartEv @1207
    _ZNK18MultiFramedRTPSink30frameCanAppearAfterPacketStartEPKhj @1208
    _ZNK18MultiFramedRTPSink33allowOtherFramesAfterLastFragmentEv @1209
    _ZNK18ServerMediaSession20isServerMediaSessionEv @1210
    _ZNK18ServerMediaSession8durationEv @1211
    _ZNK19RTPReceptionStatsDB6lookupEj @1212
    _ZNK20RTPTransmissionStats14roundTripDelayEv @1213
    _ZNK20RTPTransmissionStats20packetsLostBetweenRREv @1214
    _ZNK20RTPTransmissionStats26packetsReceivedSinceLastRREv @1215
    _ZNK21BasicUsageEnvironment8getErrnoEv @1216
    _ZNK21ServerMediaSubsession12rangeSDPLineEv @1217
    _ZNK21ServerMediaSubsession8durationEv @1218
    _ZNK22BasicUsageEnvironment012getResultMsgEv @1219
    _ZNK22RTPTransmissionStatsDB6lookupEj @1220
    _ZNK24NetInterfaceTrafficStats15haveSeenTrafficEv @1221
    _ZNK5Scope13publicKeySizeEv @1222
    _ZNK6Medium12isRTSPClientEv @1223
    _ZNK6Medium12isRTSPServerEv @1224
    _ZNK6Medium14isMediaSessionEv @1225
    _ZNK6Medium14isRTCPInstanceEv @1226
    _ZNK6Medium16isDarwinInjectorEv @1227
    _ZNK6Medium20isServerMediaSessionEv @1228
    _ZNK6Medium6isSinkEv @1229
    _ZNK6Medium8isSourceEv @1230
    _ZNK7RTPSink10rtpmapLineEv @1231
    _ZNK7RTPSink12sdpMediaTypeEv @1232
    _ZNK7RTPSink9isRTPSinkEv @1233
    _ZNK7TimevalgeERKS_ @1234
    _ZNK8GroupEId5isSSMEv @1235
    _ZNK8SDESItem9totalSizeEv @1236
    _ZNK9MediaSink6isSinkEv @1237
    _ZNK9MediaSink9isRTPSinkEv @1238
    _ZNK9RTPSource11isRTPSourceEv @1239
    _ZNK9RTPSource13getAttributesEv @1240
    _ZTI10DelayQueue @1241 DATA
    _ZTI10HandlerSet @1242 DATA
    _ZTI10NetAddress @1243 DATA
    _ZTI10RTSPClient @1244 DATA
    _ZTI10RTSPServer @1245 DATA
    _ZTI10destRecord @1246 DATA
    _ZTI11MediaSource @1247 DATA
    _ZTI12AlarmHandler @1248 DATA
    _ZTI12AudioRTPSink @1249 DATA
    _ZTI12BasicUDPSink @1250 DATA
    _ZTI12DeviceSource @1251 DATA
    _ZTI12FramedFilter @1252 DATA
    _ZTI12FramedSource @1253 DATA
    _ZTI12MediaSession @1254 DATA
    _ZTI12NetInterface @1255 DATA
    _ZTI12OutputSocket @1256 DATA
    _ZTI12RTCPInstance @1257 DATA
    _ZTI12RTPInterface @1258 DATA
    _ZTI12StreamParser @1259 DATA
    _ZTI12VideoRTPSink @1260 DATA
    _ZTI13Authenticator @1261 DATA
    _ZTI13DvrClientSink @1262 DATA
    _ZTI13DvrRTSPClient @1263 DATA
    _ZTI13SimpleRTPSink @1264 DATA
    _ZTI13TaskScheduler @1265 DATA
    _ZTI14BasicHashTable @1266 DATA
    _ZTI14BasicUDPSource @1267 DATA
    _ZTI14BufferedPacket @1268 DATA
    _ZTI14DarwinInjector @1269 DATA
    _ZTI14MyDeviceSource @1270 DATA
    _ZTI14NetAddressList @1271 DATA
    _ZTI15DelayQueueEntry @1272 DATA
    _ZTI15HandlerIterator @1273 DATA
    _ZTI15MediaSubsession @1274 DATA
    _ZTI15SimpleRTPSource @1275 DATA
    _ZTI15tcpStreamRecord @1276 DATA
    _ZTI16FramedFileSource @1277 DATA
    _ZTI16G723AudioRTPSink @1278 DATA
    _ZTI16H264VideoRTPSink @1279 DATA
    _ZTI16MediaLookupTable @1280 DATA
    _ZTI16SocketDescriptor @1281 DATA
    _ZTI16UsageEnvironment @1282 DATA
    _ZTI17H264FUAFragmenter @1283 DATA
    _ZTI17H264VideoFileSink @1284 DATA
    _ZTI17HandlerDescriptor @1285 DATA
    _ZTI17RTPReceptionStats @1286 DATA
    _ZTI17SocketLookupTable @1287 DATA
    _ZTI18BasicTaskScheduler @1288 DATA
    _ZTI18DvrClientAudioSink @1289 DATA
    _ZTI18DvrClientVideoSink @1290 DATA
    _ZTI18H264BufferedPacket @1291 DATA
    _ZTI18H264VideoRTPSource @1292 DATA
    _ZTI18MultiFramedRTPSink @1293 DATA
    _ZTI18RTCPMemberDatabase @1294 DATA
    _ZTI18RTSPOverHTTPServer @1295 DATA
    _ZTI18ServerMediaSession @1296 DATA
    _ZTI19BasicTaskScheduler0 @1297 DATA
    _ZTI19RTPReceptionStatsDB @1298 DATA
    _ZTI20ByteStreamFileSource @1299 DATA
    _ZTI20DirectedNetInterface @1300 DATA
    _ZTI20MultiFramedRTPSource @1301 DATA
    _ZTI20RTPTransmissionStats @1302 DATA
    _ZTI21BasicUsageEnvironment @1303 DATA
    _ZTI21BufferedPacketFactory @1304 DATA
    _ZTI21ServerMediaSubsession @1305 DATA
    _ZTI22AddressPortLookupTable @1306 DATA
    _ZTI22BasicUsageEnvironment0 @1307 DATA
    _ZTI22RTPTransmissionStatsDB @1308 DATA
    _ZTI22ReorderingPacketBuffer @1309 DATA
    _ZTI23DirectedNetInterfaceSet @1310 DATA
    _ZTI23MediaSubsessionIterator @1311 DATA
    _ZTI24DvrServerMediaSubsession @1312 DATA
    _ZTI25ByteStreamMultiFileSource @1313 DATA
    _ZTI25H264BufferedPacketFactory @1314 DATA
    _ZTI26UserAuthenticationDatabase @1315 DATA
    _ZTI28DvrG723ServerMediaSubsession @1316 DATA
    _ZTI28DvrH264ServerMediaSubsession @1317 DATA
    _ZTI28PassiveServerMediaSubsession @1318 DATA
    _ZTI29ServerMediaSubsessionIterator @1319 DATA
    _ZTI6Locale @1320 DATA
    _ZTI6Medium @1321 DATA
    _ZTI6Socket @1322 DATA
    _ZTI7RTPSink @1323 DATA
    _ZTI7_Tables @1324 DATA
    _ZTI8FileSink @1325 DATA
    _ZTI8HTTPSink @1326 DATA
    _ZTI9Groupsock @1327 DATA
    _ZTI9HashTable @1328 DATA
    _ZTI9MediaSink @1329 DATA
    _ZTI9RTPSource @1330 DATA
    _ZTIN10RTSPClient12RequestQueueE @1331 DATA
    _ZTIN10RTSPClient13RequestRecordE @1332 DATA
    _ZTIN10RTSPServer17RTSPClientSessionE @1333 DATA
    _ZTIN10RTSPServer26ServerMediaSessionIteratorE @1334 DATA
    _ZTIN14BasicHashTable8IteratorE @1335 DATA
    _ZTIN18RTSPOverHTTPServer20HTTPClientConnectionE @1336 DATA
    _ZTIN19RTPReceptionStatsDB8IteratorE @1337 DATA
    _ZTIN22AddressPortLookupTable8IteratorE @1338 DATA
    _ZTIN22RTPTransmissionStatsDB8IteratorE @1339 DATA
    _ZTIN23DirectedNetInterfaceSet8IteratorE @1340 DATA
    _ZTIN9HashTable8IteratorE @1341 DATA
    _ZTS10DelayQueue @1342 DATA
    _ZTS10HandlerSet @1343 DATA
    _ZTS10NetAddress @1344 DATA
    _ZTS10RTSPClient @1345 DATA
    _ZTS10RTSPServer @1346 DATA
    _ZTS10destRecord @1347 DATA
    _ZTS11MediaSource @1348 DATA
    _ZTS12AlarmHandler @1349 DATA
    _ZTS12AudioRTPSink @1350 DATA
    _ZTS12BasicUDPSink @1351 DATA
    _ZTS12DeviceSource @1352 DATA
    _ZTS12FramedFilter @1353 DATA
    _ZTS12FramedSource @1354 DATA
    _ZTS12MediaSession @1355 DATA
    _ZTS12NetInterface @1356 DATA
    _ZTS12OutputSocket @1357 DATA
    _ZTS12RTCPInstance @1358 DATA
    _ZTS12RTPInterface @1359 DATA
    _ZTS12StreamParser @1360 DATA
    _ZTS12VideoRTPSink @1361 DATA
    _ZTS13Authenticator @1362 DATA
    _ZTS13DvrClientSink @1363 DATA
    _ZTS13DvrRTSPClient @1364 DATA
    _ZTS13SimpleRTPSink @1365 DATA
    _ZTS13TaskScheduler @1366 DATA
    _ZTS14BasicHashTable @1367 DATA
    _ZTS14BasicUDPSource @1368 DATA
    _ZTS14BufferedPacket @1369 DATA
    _ZTS14DarwinInjector @1370 DATA
    _ZTS14MyDeviceSource @1371 DATA
    _ZTS14NetAddressList @1372 DATA
    _ZTS15DelayQueueEntry @1373 DATA
    _ZTS15HandlerIterator @1374 DATA
    _ZTS15MediaSubsession @1375 DATA
    _ZTS15SimpleRTPSource @1376 DATA
    _ZTS15tcpStreamRecord @1377 DATA
    _ZTS16FramedFileSource @1378 DATA
    _ZTS16G723AudioRTPSink @1379 DATA
    _ZTS16H264VideoRTPSink @1380 DATA
    _ZTS16MediaLookupTable @1381 DATA
    _ZTS16SocketDescriptor @1382 DATA
    _ZTS16UsageEnvironment @1383 DATA
    _ZTS17H264FUAFragmenter @1384 DATA
    _ZTS17H264VideoFileSink @1385 DATA
    _ZTS17HandlerDescriptor @1386 DATA
    _ZTS17RTPReceptionStats @1387 DATA
    _ZTS17SocketLookupTable @1388 DATA
    _ZTS18BasicTaskScheduler @1389 DATA
    _ZTS18DvrClientAudioSink @1390 DATA
    _ZTS18DvrClientVideoSink @1391 DATA
    _ZTS18H264BufferedPacket @1392 DATA
    _ZTS18H264VideoRTPSource @1393 DATA
    _ZTS18MultiFramedRTPSink @1394 DATA
    _ZTS18RTCPMemberDatabase @1395 DATA
    _ZTS18RTSPOverHTTPServer @1396 DATA
    _ZTS18ServerMediaSession @1397 DATA
    _ZTS19BasicTaskScheduler0 @1398 DATA
    _ZTS19RTPReceptionStatsDB @1399 DATA
    _ZTS20ByteStreamFileSource @1400 DATA
    _ZTS20DirectedNetInterface @1401 DATA
    _ZTS20MultiFramedRTPSource @1402 DATA
    _ZTS20RTPTransmissionStats @1403 DATA
    _ZTS21BasicUsageEnvironment @1404 DATA
    _ZTS21BufferedPacketFactory @1405 DATA
    _ZTS21ServerMediaSubsession @1406 DATA
    _ZTS22AddressPortLookupTable @1407 DATA
    _ZTS22BasicUsageEnvironment0 @1408 DATA
    _ZTS22RTPTransmissionStatsDB @1409 DATA
    _ZTS22ReorderingPacketBuffer @1410 DATA
    _ZTS23DirectedNetInterfaceSet @1411 DATA
    _ZTS23MediaSubsessionIterator @1412 DATA
    _ZTS24DvrServerMediaSubsession @1413 DATA
    _ZTS25ByteStreamMultiFileSource @1414 DATA
    _ZTS25H264BufferedPacketFactory @1415 DATA
    _ZTS26UserAuthenticationDatabase @1416 DATA
    _ZTS28DvrG723ServerMediaSubsession @1417 DATA
    _ZTS28DvrH264ServerMediaSubsession @1418 DATA
    _ZTS28PassiveServerMediaSubsession @1419 DATA
    _ZTS29ServerMediaSubsessionIterator @1420 DATA
    _ZTS6Locale @1421 DATA
    _ZTS6Medium @1422 DATA
    _ZTS6Socket @1423 DATA
    _ZTS7RTPSink @1424 DATA
    _ZTS7_Tables @1425 DATA
    _ZTS8FileSink @1426 DATA
    _ZTS8HTTPSink @1427 DATA
    _ZTS9Groupsock @1428 DATA
    _ZTS9HashTable @1429 DATA
    _ZTS9MediaSink @1430 DATA
    _ZTS9RTPSource @1431 DATA
    _ZTSN10RTSPClient12RequestQueueE @1432 DATA
    _ZTSN10RTSPClient13RequestRecordE @1433 DATA
    _ZTSN10RTSPServer17RTSPClientSessionE @1434 DATA
    _ZTSN10RTSPServer26ServerMediaSessionIteratorE @1435 DATA
    _ZTSN14BasicHashTable8IteratorE @1436 DATA
    _ZTSN18RTSPOverHTTPServer20HTTPClientConnectionE @1437 DATA
    _ZTSN19RTPReceptionStatsDB8IteratorE @1438 DATA
    _ZTSN22AddressPortLookupTable8IteratorE @1439 DATA
    _ZTSN22RTPTransmissionStatsDB8IteratorE @1440 DATA
    _ZTSN23DirectedNetInterfaceSet8IteratorE @1441 DATA
    _ZTSN9HashTable8IteratorE @1442 DATA
    _ZTV10DelayQueue @1443 DATA
    _ZTV10HandlerSet @1444 DATA
    _ZTV10NetAddress @1445 DATA
    _ZTV10RTSPClient @1446 DATA
    _ZTV10RTSPServer @1447 DATA
    _ZTV10destRecord @1448 DATA
    _ZTV11MediaSource @1449 DATA
    _ZTV12AlarmHandler @1450 DATA
    _ZTV12AudioRTPSink @1451 DATA
    _ZTV12BasicUDPSink @1452 DATA
    _ZTV12DeviceSource @1453 DATA
    _ZTV12FramedFilter @1454 DATA
    _ZTV12FramedSource @1455 DATA
    _ZTV12MediaSession @1456 DATA
    _ZTV12NetInterface @1457 DATA
    _ZTV12OutputSocket @1458 DATA
    _ZTV12RTCPInstance @1459 DATA
    _ZTV12RTPInterface @1460 DATA
    _ZTV12StreamParser @1461 DATA
    _ZTV12VideoRTPSink @1462 DATA
    _ZTV13Authenticator @1463 DATA
    _ZTV13DvrClientSink @1464 DATA
    _ZTV13DvrRTSPClient @1465 DATA
    _ZTV13SimpleRTPSink @1466 DATA
    _ZTV13TaskScheduler @1467 DATA
    _ZTV14BasicHashTable @1468 DATA
    _ZTV14BasicUDPSource @1469 DATA
    _ZTV14BufferedPacket @1470 DATA
    _ZTV14DarwinInjector @1471 DATA
    _ZTV14MyDeviceSource @1472 DATA
    _ZTV14NetAddressList @1473 DATA
    _ZTV15DelayQueueEntry @1474 DATA
    _ZTV15HandlerIterator @1475 DATA
    _ZTV15MediaSubsession @1476 DATA
    _ZTV15SimpleRTPSource @1477 DATA
    _ZTV15tcpStreamRecord @1478 DATA
    _ZTV16FramedFileSource @1479 DATA
    _ZTV16G723AudioRTPSink @1480 DATA
    _ZTV16H264VideoRTPSink @1481 DATA
    _ZTV16MediaLookupTable @1482 DATA
    _ZTV16SocketDescriptor @1483 DATA
    _ZTV16UsageEnvironment @1484 DATA
    _ZTV17H264FUAFragmenter @1485 DATA
    _ZTV17H264VideoFileSink @1486 DATA
    _ZTV17HandlerDescriptor @1487 DATA
    _ZTV17RTPReceptionStats @1488 DATA
    _ZTV17SocketLookupTable @1489 DATA
    _ZTV18BasicTaskScheduler @1490 DATA
    _ZTV18DvrClientAudioSink @1491 DATA
    _ZTV18DvrClientVideoSink @1492 DATA
    _ZTV18H264BufferedPacket @1493 DATA
    _ZTV18H264VideoRTPSource @1494 DATA
    _ZTV18MultiFramedRTPSink @1495 DATA
    _ZTV18RTCPMemberDatabase @1496 DATA
    _ZTV18RTSPOverHTTPServer @1497 DATA
    _ZTV18ServerMediaSession @1498 DATA
    _ZTV19BasicTaskScheduler0 @1499 DATA
    _ZTV19RTPReceptionStatsDB @1500 DATA
    _ZTV20ByteStreamFileSource @1501 DATA
    _ZTV20DirectedNetInterface @1502 DATA
    _ZTV20MultiFramedRTPSource @1503 DATA
    _ZTV20RTPTransmissionStats @1504 DATA
    _ZTV21BasicUsageEnvironment @1505 DATA
    _ZTV21BufferedPacketFactory @1506 DATA
    _ZTV21ServerMediaSubsession @1507 DATA
    _ZTV22AddressPortLookupTable @1508 DATA
    _ZTV22BasicUsageEnvironment0 @1509 DATA
    _ZTV22RTPTransmissionStatsDB @1510 DATA
    _ZTV22ReorderingPacketBuffer @1511 DATA
    _ZTV23DirectedNetInterfaceSet @1512 DATA
    _ZTV23MediaSubsessionIterator @1513 DATA
    _ZTV24DvrServerMediaSubsession @1514 DATA
    _ZTV25ByteStreamMultiFileSource @1515 DATA
    _ZTV25H264BufferedPacketFactory @1516 DATA
    _ZTV26UserAuthenticationDatabase @1517 DATA
    _ZTV28DvrG723ServerMediaSubsession @1518 DATA
    _ZTV28DvrH264ServerMediaSubsession @1519 DATA
    _ZTV28PassiveServerMediaSubsession @1520 DATA
    _ZTV29ServerMediaSubsessionIterator @1521 DATA
    _ZTV6Locale @1522 DATA
    _ZTV6Medium @1523 DATA
    _ZTV6Socket @1524 DATA
    _ZTV7RTPSink @1525 DATA
    _ZTV7_Tables @1526 DATA
    _ZTV8FileSink @1527 DATA
    _ZTV8HTTPSink @1528 DATA
    _ZTV9Groupsock @1529 DATA
    _ZTV9HashTable @1530 DATA
    _ZTV9MediaSink @1531 DATA
    _ZTV9RTPSource @1532 DATA
    _ZTVN10RTSPClient12RequestQueueE @1533 DATA
    _ZTVN10RTSPClient13RequestRecordE @1534 DATA
    _ZTVN10RTSPServer17RTSPClientSessionE @1535 DATA
    _ZTVN10RTSPServer26ServerMediaSessionIteratorE @1536 DATA
    _ZTVN14BasicHashTable8IteratorE @1537 DATA
    _ZTVN18RTSPOverHTTPServer20HTTPClientConnectionE @1538 DATA
    _ZTVN19RTPReceptionStatsDB8IteratorE @1539 DATA
    _ZTVN22AddressPortLookupTable8IteratorE @1540 DATA
    _ZTVN22RTPTransmissionStatsDB8IteratorE @1541 DATA
    _ZTVN23DirectedNetInterfaceSet8IteratorE @1542 DATA
    _ZTVN9HashTable8IteratorE @1543 DATA
    _ZlsR16UsageEnvironmentRK4Port @1544
    _ZlsR16UsageEnvironmentRK6Socket @1545
    _ZlsR16UsageEnvironmentRK9Groupsock @1546
    _ZmiRK7TimevalS1_ @1547
    _ZmlsRK13DelayInterval @1548
    __bzero @1549
    a @1550 DATA
    b @1551 DATA
    client_session_create_new @1552
    client_session_free_data @1553
    client_session_get_data @1554
    client_session_teardown @1555
    dq_cancel @1556
    dq_change_size @1557
    dq_clear @1558
    dq_construct @1559
    dq_destruct @1560
    dq_get @1561
    dq_in @1562
    dq_pop @1563
    dq_set_free @1564
    dq_set_used @1565
    drand30 @1566
    initializeWinsockIfNecessary @1567
    loopbackWorks @1568 DATA
    ourMD5Update @1569
    our_MD5Data @1570
    our_MD5End @1571
    our_MD5File @1572
    our_MD5Final @1573
    our_MD5Init @1574
    our_gethostbyname @1575
    our_inet_addr @1576
    our_inet_ntoa @1577
    our_random @1578
    our_random32 @1579
    our_srandom @1580
    rtcp_interval @1581
    streaming_client_construct @1582
    streaming_client_destruct @1583
    streaming_client_start_work @1584
    streaming_client_stop_work @1585
    streaming_del_session @1586
    streaming_get_session_url @1587
    streaming_new_session @1588
    streaming_send_data @1589
    streaming_server_construct @1590
    streaming_server_destruct @1591
    streaming_server_start @1592
    streaming_server_stop @1593
